Component: ARM Compiler 5.06 update 6 (build 750) Tool: armlink [4d35ed]

==============================================================================

Small function inlining results

Inlined function __aeabi_idiv0 from aeabi_idiv0.o at offset 0x1e2 in aeabi_sdivfast.o(.text).
Inlined Instruction: BX       lr
Inlined function __aeabi_idiv0 from aeabi_idiv0.o at offset 0x1e2 in aeabi_sdivfast_div0.o(.text).
Inlined Instruction: BX       lr
Inlined function _platform_pre_stackheap_init from boardinit1.o at offset 0x0 in __rtentry2.o(.ARM.Collect$$rtentry$$00000001).
Inlined Instruction: BX       lr
Inlined function _fp_init from fpinit.o at offset 0x0 in libinit2.o(.ARM.Collect$$libinit$$00000001).
Inlined Instruction: BX       lr
Inlined function _platform_pre_lib_shutdown from boardshut.o at offset 0x0 in rtexit2.o(.ARM.Collect$$rtexit$$00000001).
Inlined Instruction: BX       lr
Inlined function __ARM_get_argv from no_argv.o at offset 0x2 in argv_veneer.o(.text).
Inlined Instruction: BX       lr
Inlined total of 6 calls.

==============================================================================

Section Cross References

    main.o(i.PWM0_IRQHandler) refers to pwm.o(i.PWM_GetIntFlag) for PWM_GetIntFlag
    main.o(i.PWM0_IRQHandler) refers to pwm.o(i.PWM_ClearIntFlag) for PWM_ClearIntFlag
    main.o(i.PWM0_IRQHandler) refers to main.o(.bss) for .bss
    main.o(i.SPIFlash_Initiate) refers to clk.o(i.CLK_EnableModuleClock) for CLK_EnableModuleClock
    main.o(i.SPIFlash_Initiate) refers to sys.o(i.SYS_ResetModule) for SYS_ResetModule
    main.o(i.SPIFlash_Initiate) refers to spiflash.o(i.SPIFlash_Open) for SPIFlash_Open
    main.o(i.SPIFlash_Initiate) refers to spiflash.o(i.SPIFlash_PowerDown) for SPIFlash_PowerDown
    main.o(i.SPIFlash_Initiate) refers to spiflash.o(i.SPIFlash_Read) for SPIFlash_Read
    main.o(i.SPIFlash_Initiate) refers to spiflash.o(i.SPIFlash_GetChipInfo) for SPIFlash_GetChipInfo
    main.o(i.SPIFlash_Initiate) refers to main.o(.bss) for .bss
    main.o(i.TMR0_IRQHandler) refers to main.o(.bss) for .bss
    main.o(i.TMR0_IRQHandler) refers to main.o(.data) for .data
    main.o(i.TMR1_IRQHandler) refers to main.o(.data) for .data
    main.o(i.UART0_IRQHandler) refers to main.o(.bss) for .bss
    main.o(i.UART_Init) refers to clk.o(i.CLK_EnableModuleClock) for CLK_EnableModuleClock
    main.o(i.UART_Init) refers to uart.o(i.UART_Open) for UART_Open
    main.o(i.UART_Init) refers to uart.o(i.UART_ClearIntFlag) for UART_ClearIntFlag
    main.o(i.UART_Init) refers to main.o(i.NVIC_EnableIRQ) for NVIC_EnableIRQ
    main.o(i.main) refers to sysclk.o(i.SysClk_InitiateRC) for SysClk_InitiateRC
    main.o(i.main) refers to clk.o(i.CLK_EnableLDO) for CLK_EnableLDO
    main.o(i.main) refers to configio.o(i.OutputPin_Initiate) for OutputPin_Initiate
    main.o(i.main) refers to pdmactrl.o(i.PdmaCtrl_Init) for PdmaCtrl_Init
    main.o(i.main) refers to micspk.o(i.SPK_Open) for SPK_Open
    main.o(i.main) refers to micspk.o(i.MIC_Open) for MIC_Open
    main.o(i.main) refers to main.o(i.UART_Init) for UART_Init
    main.o(i.main) refers to main.o(i.time_init) for time_init
    main.o(i.main) refers to main.o(i.pwm_init) for pwm_init
    main.o(i.main) refers to appfunctions.o(i.App_Initiate) for App_Initiate
    main.o(i.main) refers to gpio.o(i.GPIO_SetMode) for GPIO_SetMode
    main.o(i.main) refers to appfunctions.o(i.App_Process) for App_Process
    main.o(i.main) refers to main.o(i.uart_rev_task) for uart_rev_task
    main.o(i.pwm_init) refers to clk.o(i.CLK_SetModuleClock) for CLK_SetModuleClock
    main.o(i.pwm_init) refers to clk.o(i.CLK_EnableModuleClock) for CLK_EnableModuleClock
    main.o(i.pwm_init) refers to sys.o(i.SYS_ResetModule) for SYS_ResetModule
    main.o(i.pwm_init) refers to pwm.o(i.PWM_ConfigOutputChannel) for PWM_ConfigOutputChannel
    main.o(i.pwm_init) refers to pwm.o(i.PWM_EnableOutput) for PWM_EnableOutput
    main.o(i.pwm_init) refers to main.o(i.NVIC_EnableIRQ) for NVIC_EnableIRQ
    main.o(i.pwm_init) refers to pwm.o(i.PWM_Start) for PWM_Start
    main.o(i.pwm_init) refers to pwm.o(i.PWM_DisableDeadZone) for PWM_DisableDeadZone
    main.o(i.pwm_init) refers to main.o(.bss) for .bss
    main.o(i.time_init) refers to clk.o(i.CLK_EnableModuleClock) for CLK_EnableModuleClock
    main.o(i.time_init) refers to clk.o(i.CLK_SetModuleClock) for CLK_SetModuleClock
    main.o(i.time_init) refers to timer.o(i.TIMER_Open) for TIMER_Open
    main.o(i.time_init) refers to main.o(i.NVIC_EnableIRQ) for NVIC_EnableIRQ
    main.o(i.uart_rev_task) refers to main.o(.bss) for .bss
    main.o(i.uart_send) refers to main.o(.bss) for .bss
    main.o(i.uart_send) refers to main.o(.data) for .data
    appfunctions.o(i.App_Initiate) refers to playback.o(i.Playback_Initiate) for Playback_Initiate
    appfunctions.o(i.App_Initiate) refers to micgetapp.o(i.MicGetApp_Initiate) for MicGetApp_Initiate
    appfunctions.o(i.App_Initiate) refers to vronecmdapp.o(i.VROneCmdApp_UnpackBin) for VROneCmdApp_UnpackBin
    appfunctions.o(i.App_Initiate) refers to appfunctions.o(i.App_StartRecognize) for App_StartRecognize
    appfunctions.o(i.App_Initiate) refers to main.o(.data) for g_u8AppCtrl
    appfunctions.o(i.App_Initiate) refers to main.o(.bss) for g_sApp
    appfunctions.o(i.App_Initiate) refers to main.o(.data) for Fan_Stauts
    appfunctions.o(i.App_PowerDown) refers to appfunctions.o(i.App_StopRecognize) for App_StopRecognize
    appfunctions.o(i.App_PowerDown) refers to powerdown.o(i.PowerDown_Enter) for PowerDown_Enter
    appfunctions.o(i.App_PowerDown) refers to powerdown.o(i.PowerDown) for PowerDown
    appfunctions.o(i.App_PowerDown) refers to powerdown.o(i.PowerDown_Exit) for PowerDown_Exit
    appfunctions.o(i.App_PowerDown) refers to playback.o(i.Playback_Initiate) for Playback_Initiate
    appfunctions.o(i.App_PowerDown) refers to micgetapp.o(i.MicGetApp_Initiate) for MicGetApp_Initiate
    appfunctions.o(i.App_PowerDown) refers to appfunctions.o(i.App_StartRecognize) for App_StartRecognize
    appfunctions.o(i.App_PowerDown) refers to main.o(.bss) for g_sApp
    appfunctions.o(i.App_Process) refers to md4app.o(i.MD4App_DecodeProcess) for MD4App_DecodeProcess
    appfunctions.o(i.App_Process) refers to micgetapp.o(i.MicGetApp_StartRec) for MicGetApp_StartRec
    appfunctions.o(i.App_Process) refers to micgetapp.o(i.MicGetApp_ProcessRec) for MicGetApp_ProcessRec
    appfunctions.o(i.App_Process) refers to vronecmdapp.o(i.VROneCmdApp_GetCMDID) for VROneCmdApp_GetCMDID
    appfunctions.o(i.App_Process) refers to appfunctions.o(i.__ARM_common_switch8) for __ARM_common_switch8
    appfunctions.o(i.App_Process) refers to aeabi_sdivfast.o(.text) for __aeabi_uidivmod
    appfunctions.o(i.App_Process) refers to pwm.o(i.PWM_Start) for PWM_Start
    appfunctions.o(i.App_Process) refers to appfunctions.o(i.SendCMD) for SendCMD
    appfunctions.o(i.App_Process) refers to main.o(.data) for vr_time
    appfunctions.o(i.App_Process) refers to main.o(.data) for Fan_Stauts
    appfunctions.o(i.App_Process) refers to main.o(.data) for g_u8AppCtrl
    appfunctions.o(i.App_Process) refers to main.o(.bss) for g_sApp
    appfunctions.o(i.App_Process) refers to appfunctions.o(.data) for .data
    appfunctions.o(i.App_Process) refers to main.o(.bss) for pwm1
    appfunctions.o(i.App_StartRecognize) refers to vronecmdapp.o(i.VROneCmdApp_Initiate) for VROneCmdApp_Initiate
    appfunctions.o(i.App_StartRecognize) refers to micgetapp.o(i.MicGetApp_StartRec) for MicGetApp_StartRec
    appfunctions.o(i.App_StartRecognize) refers to main.o(.bss) for g_sApp
    appfunctions.o(i.App_StopRecognize) refers to micgetapp.o(i.MicGetApp_StopRec) for MicGetApp_StopRec
    appfunctions.o(i.App_StopRecognize) refers to CSpotterSDKApi.o(i.CSpotter_Release) for CSpotter_Release
    appfunctions.o(i.App_StopRecognize) refers to main.o(.bss) for g_sApp
    appfunctions.o(i.SendCMD) refers to appfunctions.o(i.SendCMD1time) for SendCMD1time
    appfunctions.o(i.SendCMD) refers to appfunctions.o(i.delayms) for delayms
    appfunctions.o(i.SendCMD) refers to appfunctions.o(i.SendCMDNULL) for SendCMDNULL
    appfunctions.o(i.SendCMD1time) refers to appfunctions.o(i.SendCMDByteTimer) for SendCMDByteTimer
    appfunctions.o(i.SendCMDByteTimer) refers to main.o(.data) for flag_1p25ms
    appfunctions.o(i.SendCMDNULL) refers to main.o(.data) for sendbline
    appfunctions.o(i.delay1p25ms) refers to main.o(.data) for flag_1p25ms
    appfunctions.o(i.delayms) refers to aeabi_sdivfast.o(.text) for __aeabi_uidivmod
    appfunctions.o(i.delayms) refers to main.o(.data) for flag_1p25ms
    appfunctions.o(i.vr_uart_send) refers to appfunctions.o(.data) for .data
    appfunctions.o(.data) refers to appfunctions.o(.conststring) for .conststring
    appfunctions.o(.data) refers to appfunctions.o(.conststring) for .conststring
    appcallback.o(i.SPIFlash_ReadDataCallback) refers to spiflash.o(i.SPIFlash_Read) for SPIFlash_Read
    appcallback.o(i.SPIFlash_ReadDataCallback) refers to main.o(.bss) for g_sSpiFlash
    appcallback.o(.constdata) refers to appcallback.o(i.SPIFlash_ReadDataCallback) for SPIFlash_ReadDataCallback
    appcallback.o(.constdata) refers to appcallback.o(i.UserEvent_ProcessCallback) for UserEvent_ProcessCallback
    inputkeyactions.o(i.Default_KeyHandler) refers to appfunctions.o(i.App_StopRecognize) for App_StopRecognize
    inputkeyactions.o(i.Default_KeyHandler) refers to configio.o(i.OutputPin_Set) for OutputPin_Set
    inputkeyactions.o(i.Default_KeyHandler) refers to preload.o(i.PreLoad_VRBin) for PreLoad_VRBin
    inputkeyactions.o(i.Default_KeyHandler) refers to vronecmdapp.o(i.VROneCmdApp_UnpackBin) for VROneCmdApp_UnpackBin
    inputkeyactions.o(i.Default_KeyHandler) refers to appfunctions.o(i.App_StartRecognize) for App_StartRecognize
    inputkeyactions.o(i.Default_KeyHandler) refers to appfunctions.o(i.App_PowerDown) for App_PowerDown
    inputkeyactions.o(i.Default_KeyHandler) refers to main.o(.data) for g_u8AppCtrl
    inputkeyactions.o(i.Default_KeyHandler) refers to main.o(.bss) for g_sApp
    inputkeyactions.o(i.PowerDown_KeypadHandler) refers to appfunctions.o(i.App_PowerDown) for App_PowerDown
    interrupthandler.o(i.PDMA_IRQHandler) refers to playback.o(i.Playback_Process) for Playback_Process
    interrupthandler.o(i.PDMA_IRQHandler) refers to record.o(i.Record_Process) for Record_Process
    interrupthandler.o(i.PDMA_IRQHandler) refers to interrupthandler.o(.bss) for .bss
    powerdown.o(i.PowerDown) refers to clk.o(i.CLK_DeepSleep) for CLK_DeepSleep
    powerdown.o(i.PowerDown_Enter) refers to spiflash.o(i.SPIFlash_PowerDown) for SPIFlash_PowerDown
    powerdown.o(i.PowerDown_Enter) refers to spi.o(i.SPI_Close) for SPI_Close
    powerdown.o(i.PowerDown_Enter) refers to clk.o(i.CLK_DisableModuleClock) for CLK_DisableModuleClock
    powerdown.o(i.PowerDown_Enter) refers to micspk.o(i.SPK_Close) for SPK_Close
    powerdown.o(i.PowerDown_Enter) refers to micspk.o(i.MIC_Close) for MIC_Close
    powerdown.o(i.PowerDown_Enter) refers to pdmactrl.o(i.PdmaCtrl_UnInit) for PdmaCtrl_UnInit
    powerdown.o(i.PowerDown_Enter) refers to keypad.o(i.Keypad_ResetTgr) for Keypad_ResetTgr
    powerdown.o(i.PowerDown_Enter) refers to powerdown.o(i.NVIC_DisableIRQ) for NVIC_DisableIRQ
    powerdown.o(i.PowerDown_Enter) refers to gpio.o(i.GPIO_SetMode) for GPIO_SetMode
    powerdown.o(i.PowerDown_Enter) refers to powerdown.o(i.PowerDown_GPIOPreProc) for PowerDown_GPIOPreProc
    powerdown.o(i.PowerDown_Enter) refers to clk.o(i.CLK_DisableLDO) for CLK_DisableLDO
    powerdown.o(i.PowerDown_Enter) refers to main.o(.bss) for g_sSpiFlash
    powerdown.o(i.PowerDown_Exit) refers to clk.o(i.CLK_EnableLDO) for CLK_EnableLDO
    powerdown.o(i.PowerDown_Exit) refers to powerdown.o(i.PowerDown_GPIOPostProc) for PowerDown_GPIOPostProc
    powerdown.o(i.PowerDown_Exit) refers to configio.o(i.OutputPin_Initiate) for OutputPin_Initiate
    powerdown.o(i.PowerDown_Exit) refers to configio.o(i.InputKey_Initiate) for InputKey_Initiate
    powerdown.o(i.PowerDown_Exit) refers to pdmactrl.o(i.PdmaCtrl_Init) for PdmaCtrl_Init
    powerdown.o(i.PowerDown_Exit) refers to micspk.o(i.SPK_Open) for SPK_Open
    powerdown.o(i.PowerDown_Exit) refers to micspk.o(i.MIC_Open) for MIC_Open
    powerdown.o(i.PowerDown_Exit) refers to main.o(i.SPIFlash_Initiate) for SPIFlash_Initiate
    powerdown.o(i.PowerDown_Exit) refers to configio.o(i.OutputPin_Set) for OutputPin_Set
    powerdown.o(i.PowerDown_GPIOConfigWakePin) refers to gpio.o(i.GPIO_EnableInt) for GPIO_EnableInt
    powerdown.o(i.PowerDown_GPIOConfigWakePin) refers to gpio.o(i.GPIO_DisableInt) for GPIO_DisableInt
    powerdown.o(i.PowerDown_GPIOPostProc) refers to powerdown.o(i.NVIC_DisableIRQ) for NVIC_DisableIRQ
    powerdown.o(i.PowerDown_GPIOPostProc) refers to powerdown.o(i.PowerDown_GPIOConfigWakePin) for PowerDown_GPIOConfigWakePin
    powerdown.o(i.PowerDown_GPIOPostProc) refers to powerdown.o(i.PowerDown_GPIOStableCount) for PowerDown_GPIOStableCount
    powerdown.o(i.PowerDown_GPIOPreProc) refers to powerdown.o(i.PowerDown_GPIOStableCount) for PowerDown_GPIOStableCount
    powerdown.o(i.PowerDown_GPIOPreProc) refers to gpio.o(i.GPIO_SetMode) for GPIO_SetMode
    powerdown.o(i.PowerDown_GPIOPreProc) refers to powerdown.o(i.PowerDown_GPIOConfigWakePin) for PowerDown_GPIOConfigWakePin
    powerdown.o(i.PowerDown_GPIOStableCount) refers to clk.o(i.CLK_SetSysTickClockSrc) for CLK_SetSysTickClockSrc
    powerdown.o(i.PowerDown_GPIOStableCount) refers to clk.o(i.CLK_SysTickDelay) for CLK_SysTickDelay
    powerdown.o(i.PowerDown_RTCPostProc) refers to powerdown.o(i.NVIC_DisableIRQ) for NVIC_DisableIRQ
    powerdown.o(i.PowerDown_RTCPostProc) refers to rtc.o(i.RTC_DisableInt) for RTC_DisableInt
    powerdown.o(i.PowerDown_RTCPostProc) refers to rtc.o(i.RTC_Close) for RTC_Close
    powerdown.o(i.PowerDown_RTCPostProc) refers to clk.o(i.CLK_DisableModuleClock) for CLK_DisableModuleClock
    powerdown.o(i.PowerDown_RTCPreProc) refers to clk.o(i.CLK_EnableModuleClock) for CLK_EnableModuleClock
    powerdown.o(i.PowerDown_RTCPreProc) refers to clk.o(i.CLK_SetModuleClock) for CLK_SetModuleClock
    powerdown.o(i.PowerDown_RTCPreProc) refers to rtc.o(i.RTC_Open) for RTC_Open
    powerdown.o(i.PowerDown_RTCPreProc) refers to rtc.o(i.RTC_SetAlarmDateAndTime) for RTC_SetAlarmDateAndTime
    powerdown.o(i.PowerDown_RTCPreProc) refers to rtc.o(i.RTC_EnableInt) for RTC_EnableInt
    powerdown.o(i.PowerDown_WDTPostProc) refers to powerdown.o(i.NVIC_DisableIRQ) for NVIC_DisableIRQ
    powerdown.o(i.PowerDown_WDTPostProc) refers to wdt.o(i.WDT_DisableInt) for WDT_DisableInt
    powerdown.o(i.PowerDown_WDTPostProc) refers to wdt.o(i.WDT_Close) for WDT_Close
    powerdown.o(i.PowerDown_WDTPostProc) refers to clk.o(i.CLK_DisableModuleClock) for CLK_DisableModuleClock
    powerdown.o(i.PowerDown_WDTPreProc) refers to clk.o(i.CLK_EnableModuleClock) for CLK_EnableModuleClock
    powerdown.o(i.PowerDown_WDTPreProc) refers to clk.o(i.CLK_SetModuleClock) for CLK_SetModuleClock
    powerdown.o(i.PowerDown_WDTPreProc) refers to wdt.o(i.WDT_ResetCounter) for WDT_ResetCounter
    powerdown.o(i.PowerDown_WDTPreProc) refers to wdt.o(i.WDT_ClearTimeOutIntFlag) for WDT_ClearTimeOutIntFlag
    powerdown.o(i.PowerDown_WDTPreProc) refers to wdt.o(i.WDT_Open) for WDT_Open
    powerdown.o(i.PowerDown_WDTPreProc) refers to wdt.o(i.WDT_EnableInt) for WDT_EnableInt
    preload.o(i.PreLoad_VRBin) refers to spiflash.o(i.SPIFlash_Read) for SPIFlash_Read
    preload.o(i.PreLoad_VRBin) refers to sys.o(i.SYS_Unlock) for SYS_Unlock
    preload.o(i.PreLoad_VRBin) refers to fmc.o(i.FMC_Open) for FMC_Open
    preload.o(i.PreLoad_VRBin) refers to fmc.o(i.FMC_Erase) for FMC_Erase
    preload.o(i.PreLoad_VRBin) refers to fmc.o(i.FMC_Write) for FMC_Write
    preload.o(i.PreLoad_VRBin) refers to fmc.o(i.FMC_Close) for FMC_Close
    preload.o(i.PreLoad_VRBin) refers to sys.o(i.SYS_Lock) for SYS_Lock
    preload.o(i.PreLoad_VRBin) refers to main.o(.bss) for g_sSpiFlash
    micgetapp.o(i.MicGetApp_Initiate) refers to rt_memclr.o(.text) for __aeabi_memclr4
    micgetapp.o(i.MicGetApp_ProcessRec) refers to bufctrl.o(i.BufCtrl_UpdateReadWithCount) for BufCtrl_UpdateReadWithCount
    micgetapp.o(i.MicGetApp_StartRec) refers to record.o(i.Record_SetInBufRecord) for Record_SetInBufRecord
    micgetapp.o(i.MicGetApp_StartRec) refers to record.o(i.Record_Add) for Record_Add
    micgetapp.o(i.MicGetApp_StartRec) refers to record.o(i.Record_StartRec) for Record_StartRec
    micgetapp.o(i.MicGetApp_StopRec) refers to record.o(i.Record_StopRec) for Record_StopRec
    md4app.o(i.MD4App_DecodeInitiate) refers to rt_memclr.o(.text) for __aeabi_memclr4
    md4app.o(i.MD4App_DecodeProcess) refers to md4decode.o(i.MD4_DecodeIsEnd) for MD4_DecodeIsEnd
    md4app.o(i.MD4App_DecodeProcess) refers to playback.o(i.Playback_Remove) for Playback_Remove
    md4app.o(i.MD4App_DecodeProcess) refers to md4decode.o(i.MD4_DecodeProcess) for MD4_DecodeProcess
    md4app.o(i.MD4App_DecodeProcess) refers to bufctrl.o(i.BufCtrl_UpdateWriteWithCount) for BufCtrl_UpdateWriteWithCount
    md4app.o(i.MD4App_DecodeProcess) refers to appcallback.o(.constdata) for g_asAppCallBack
    md4app.o(i.MD4App_DecodeStartPlayByAddr) refers to md4decode.o(i.MD4_DecodeInitiate) for MD4_DecodeInitiate
    md4app.o(i.MD4App_DecodeStartPlayByAddr) refers to playback.o(i.Playback_SetOutputBuf) for Playback_SetOutputBuf
    md4app.o(i.MD4App_DecodeStartPlayByAddr) refers to md4app.o(i.MD4App_DecodeProcess) for MD4App_DecodeProcess
    md4app.o(i.MD4App_DecodeStartPlayByAddr) refers to playback.o(i.Playback_Add) for Playback_Add
    md4app.o(i.MD4App_DecodeStartPlayByAddr) refers to appcallback.o(.constdata) for g_asAppCallBack
    md4app.o(i.MD4App_DecodeStartPlayByID) refers to audiorom.o(i.AudioRom_GetAudioChunkInfo) for AudioRom_GetAudioChunkInfo
    md4app.o(i.MD4App_DecodeStartPlayByID) refers to md4app.o(i.MD4App_DecodeStartPlayByAddr) for MD4App_DecodeStartPlayByAddr
    md4app.o(i.MD4App_DecodeStartPlayByID) refers to appcallback.o(.constdata) for g_asAppCallBack
    md4app.o(i.MD4App_DecodeStopPlay) refers to playback.o(i.Playback_Remove) for Playback_Remove
    vronecmdapp.o(i.VROneCmdApp_GetCMDID) refers to CSpotterSDKApi.o(i.CSpotter_AddSample) for CSpotter_AddSample
    vronecmdapp.o(i.VROneCmdApp_GetCMDID) refers to CSpotterSDKApi.o(i.CSpotter_GetResult) for CSpotter_GetResult
    vronecmdapp.o(i.VROneCmdApp_Initiate) refers to CSpotterSDKApi.o(i.CSpotter_GetMemoryUsage_Sep) for CSpotter_GetMemoryUsage_Sep
    vronecmdapp.o(i.VROneCmdApp_Initiate) refers to CSpotterSDKApi.o(i.CSpotter_Init_Sep) for CSpotter_Init_Sep
    vronecmdapp.o(i.VROneCmdApp_Initiate) refers to CSpotterSDKApi.o(i.CSpotter_Reset) for CSpotter_Reset
    system_isd9100.o(i.SystemCoreClockUpdate) refers to aeabi_sdivfast.o(.text) for __aeabi_uidivmod
    system_isd9100.o(i.SystemCoreClockUpdate) refers to system_isd9100.o(.data) for .data
    startup_isd9100.o(STACK) refers (Special) to heapauxi.o(.text) for __use_two_region_memory
    startup_isd9100.o(HEAP) refers (Special) to heapauxi.o(.text) for __use_two_region_memory
    startup_isd9100.o(RESET) refers (Special) to heapauxi.o(.text) for __use_two_region_memory
    startup_isd9100.o(RESET) refers to startup_isd9100.o(STACK) for __initial_sp
    startup_isd9100.o(RESET) refers to startup_isd9100.o(.text) for Reset_Handler
    startup_isd9100.o(RESET) refers to interrupthandler.o(i.WDT_IRQHandler) for WDT_IRQHandler
    startup_isd9100.o(RESET) refers to interrupthandler.o(i.GPAB_IRQHandler) for GPAB_IRQHandler
    startup_isd9100.o(RESET) refers to main.o(i.PWM0_IRQHandler) for PWM0_IRQHandler
    startup_isd9100.o(RESET) refers to main.o(i.TMR0_IRQHandler) for TMR0_IRQHandler
    startup_isd9100.o(RESET) refers to main.o(i.TMR1_IRQHandler) for TMR1_IRQHandler
    startup_isd9100.o(RESET) refers to main.o(i.UART0_IRQHandler) for UART0_IRQHandler
    startup_isd9100.o(RESET) refers to interrupthandler.o(i.PDMA_IRQHandler) for PDMA_IRQHandler
    startup_isd9100.o(RESET) refers to interrupthandler.o(i.CAPS_IRQHandler) for CAPS_IRQHandler
    startup_isd9100.o(RESET) refers to interrupthandler.o(i.RTC_IRQHandler) for RTC_IRQHandler
    startup_isd9100.o(.text) refers (Special) to heapauxi.o(.text) for __use_two_region_memory
    startup_isd9100.o(.text) refers to __main.o(!!!main) for __main
    startup_isd9100.o(.text) refers to startup_isd9100.o(HEAP) for Heap_Mem
    startup_isd9100.o(.text) refers to startup_isd9100.o(STACK) for Stack_Mem
    sysclk.o(i.SysClk_InitiateRC) refers to clk.o(i.CLK_EnableXtalRC) for CLK_EnableXtalRC
    sysclk.o(i.SysClk_InitiateRC) refers to clk.o(i.CLK_SetHCLK) for CLK_SetHCLK
    sysclk.o(i.SysClk_InitiateRC) refers to aeabi_sdivfast.o(.text) for __aeabi_uidivmod
    audiomixer.o(i.AudioMixer_ChangeSR) refers to aeabi_sdivfast.o(.text) for __aeabi_uidivmod
    audiomixer.o(i.AudioMixer_Initiate) refers to audiomixer.o(i.AudioMixer_ChangeSR) for AudioMixer_ChangeSR
    audiomixer.o(i.AudioMixer_Initiate) refers to audiomixer.o(i.AudioMixer_MixProcess) for AudioMixer_MixProcess
    audiomixer.o(i.AudioMixer_MixProcess) refers to volumectrl.o(i.VolumeCtrl_VolumeFade) for VolumeCtrl_VolumeFade
    audiomixer.o(i.AudioMixer_MixProcess) refers to volumectrl.o(.data) for g_sChannelVolInfo
    audiomixer.o(i.AudioMixer_MixProcess) refers to volumectrl.o(.constdata) for g_u16Playback_Volume_DB_Table
    audiorom.o(i.AudioRom_GetAudioChunkInfo) refers to audiorom.o(i.AudioRom_GetRomHeader) for AudioRom_GetRomHeader
    configio.o(i.InputKey_Change) refers to keypad.o(i.Keypad_InitTgr) for Keypad_InitTgr
    configio.o(i.InputKey_Change) refers to configio.o(.constdata) for .constdata
    configio.o(i.InputKey_Initiate) refers to gpio.o(i.GPIO_SetMode) for GPIO_SetMode
    configio.o(i.InputKey_Initiate) refers to clk.o(i.CLK_EnableModuleClock) for CLK_EnableModuleClock
    configio.o(i.InputKey_Initiate) refers to clk.o(i.CLK_SetModuleClock) for CLK_SetModuleClock
    configio.o(i.InputKey_Initiate) refers to timer.o(i.TIMER_Open) for TIMER_Open
    configio.o(i.InputKey_Initiate) refers to timer.o(i.TIMER_GetWorkingFreq) for TIMER_GetWorkingFreq
    configio.o(i.InputKey_Initiate) refers to dflti.o(.text) for __aeabi_ui2d
    configio.o(i.InputKey_Initiate) refers to dmul.o(.text) for __aeabi_dmul
    configio.o(i.InputKey_Initiate) refers to dfixui.o(.text) for __aeabi_d2uiz
    configio.o(i.InputKey_Initiate) refers to keypad.o(i.Keypad_InitKeypad) for Keypad_InitKeypad
    configio.o(i.InputKey_Initiate) refers to configio.o(i.InputKey_Change) for InputKey_Change
    configio.o(i.OutputPin_Initiate) refers to gpio.o(i.GPIO_SetMode) for GPIO_SetMode
    configio.o(.constdata) refers to inputkeyactions.o(i.Default_KeyHandler) for Default_KeyHandler
    bufctrl.o(i.BufCtrl_SetBuf) refers to rt_memclr.o(.text) for __aeabi_memclr
    micspk.o(i.BIQFilter_Setting) refers to clk.o(i.CLK_EnableModuleClock) for CLK_EnableModuleClock
    micspk.o(i.BIQFilter_Setting) refers to biq.o(i.BIQ_Reset) for BIQ_Reset
    micspk.o(i.BIQFilter_Setting) refers to biq.o(i.BIQ_SetCoeff) for BIQ_SetCoeff
    micspk.o(i.BIQFilter_Setting) refers to micspk.o(.constdata) for .constdata
    micspk.o(i.MIC_ChangeSR) refers to aeabi_sdivfast.o(.text) for __aeabi_uidivmod
    micspk.o(i.MIC_ChangeSR) refers to micspk.o(.constdata) for .constdata
    micspk.o(i.MIC_ChangeSR) refers to system_isd9100.o(.data) for SystemCoreClock
    micspk.o(i.MIC_Close) refers to adc.o(i.ADC_DisableInt) for ADC_DisableInt
    micspk.o(i.MIC_Close) refers to adc.o(i.ADC_DisableMICBias) for ADC_DisableMICBias
    micspk.o(i.MIC_Close) refers to adc.o(i.ADC_Close) for ADC_Close
    micspk.o(i.MIC_Close) refers to clk.o(i.CLK_DisableModuleClock) for CLK_DisableModuleClock
    micspk.o(i.MIC_Open) refers to clk.o(i.CLK_EnableModuleClock) for CLK_EnableModuleClock
    micspk.o(i.MIC_Open) refers to sys.o(i.SYS_ResetModule) for SYS_ResetModule
    micspk.o(i.MIC_Open) refers to adc.o(i.ADC_SetPGAGaindB) for ADC_SetPGAGaindB
    micspk.o(i.MIC_Open) refers to adc.o(i.ADC_EnableMICBias) for ADC_EnableMICBias
    micspk.o(i.MIC_Open) refers to adc.o(i.ADC_SetAMUX) for ADC_SetAMUX
    micspk.o(i.MIC_Open) refers to adc.o(i.ADC_Open) for ADC_Open
    micspk.o(i.MIC_Open) refers to micspk.o(i.BIQFilter_Setting) for BIQFilter_Setting
    micspk.o(i.MIC_Open) refers to pdmactrl.o(i.PdmaCtrl_Open) for PdmaCtrl_Open
    micspk.o(i.SPK_ChangeSR) refers to aeabi_sdivfast.o(.text) for __aeabi_uidivmod
    micspk.o(i.SPK_ChangeSR) refers to dpwm.o(i.DPWM_SetSampleRate) for DPWM_SetSampleRate
    micspk.o(i.SPK_ChangeSR) refers to system_isd9100.o(.data) for SystemCoreClock
    micspk.o(i.SPK_Close) refers to pdmactrl.o(i.PdmaCtrl_Stop) for PdmaCtrl_Stop
    micspk.o(i.SPK_Close) refers to pdmactrl.o(i.PdmaCtrl_Close) for PdmaCtrl_Close
    micspk.o(i.SPK_Close) refers to clk.o(i.CLK_DisableModuleClock) for CLK_DisableModuleClock
    micspk.o(i.SPK_Open) refers to clk.o(i.CLK_EnableModuleClock) for CLK_EnableModuleClock
    micspk.o(i.SPK_Open) refers to clk.o(i.CLK_SetModuleClock) for CLK_SetModuleClock
    micspk.o(i.SPK_Open) refers to sys.o(i.SYS_ResetModule) for SYS_ResetModule
    micspk.o(i.SPK_Open) refers to dpwm.o(i.DPWM_Open) for DPWM_Open
    micspk.o(i.SPK_Open) refers to micspk.o(i.BIQFilter_Setting) for BIQFilter_Setting
    micspk.o(i.SPK_Open) refers to pdmactrl.o(i.PdmaCtrl_Open) for PdmaCtrl_Open
    pdmactrl.o(i.PdmaCtrl_Init) refers to clk.o(i.CLK_EnableModuleClock) for CLK_EnableModuleClock
    pdmactrl.o(i.PdmaCtrl_Init) refers to sys.o(i.SYS_ResetModule) for SYS_ResetModule
    pdmactrl.o(i.PdmaCtrl_Open) refers to pdma.o(i.PDMA_Open) for PDMA_Open
    pdmactrl.o(i.PdmaCtrl_Open) refers to pdma.o(i.PDMA_SetTransferMode) for PDMA_SetTransferMode
    pdmactrl.o(i.PdmaCtrl_Open) refers to pdma.o(i.PDMA_SetTransferAddr) for PDMA_SetTransferAddr
    pdmactrl.o(i.PdmaCtrl_Open) refers to pdma.o(i.PDMA_SetTransferCnt) for PDMA_SetTransferCnt
    pdmactrl.o(i.PdmaCtrl_Open) refers to pdma.o(i.PDMA_SetTransferDirection) for PDMA_SetTransferDirection
    pdmactrl.o(i.PdmaCtrl_Open) refers to pdma.o(i.PDMA_EnableInt) for PDMA_EnableInt
    pdmactrl.o(i.PdmaCtrl_Start) refers to pdma.o(i.PDMA_Trigger) for PDMA_Trigger
    pdmactrl.o(i.PdmaCtrl_UnInit) refers to clk.o(i.CLK_DisableModuleClock) for CLK_DisableModuleClock
    playback.o(i.Playback_Add) refers to pdma.o(i.PDMA_DisableInt) for PDMA_DisableInt
    playback.o(i.Playback_Add) refers to micspk.o(i.SPK_ChangeSR) for SPK_ChangeSR
    playback.o(i.Playback_Add) refers to pdma.o(i.PDMA_EnableInt) for PDMA_EnableInt
    playback.o(i.Playback_Add) refers to playback.o(i.Playback_StopPlay) for Playback_StopPlay
    playback.o(i.Playback_Add) refers to playback.o(.data) for .data
    playback.o(i.Playback_GetPlayingChannels) refers to playback.o(.data) for .data
    playback.o(i.Playback_Initiate) refers to playback.o(i.Playback_ResetChannelVolume) for Playback_ResetChannelVolume
    playback.o(i.Playback_MuteCtrl) refers to playback.o(i.Playback_SetPauseMute) for Playback_SetPauseMute
    playback.o(i.Playback_PauseCtrl) refers to playback.o(i.Playback_SetPauseMute) for Playback_SetPauseMute
    playback.o(i.Playback_Process) refers to bufctrl.o(i.BufCtrl_UpdateReadWithCount) for BufCtrl_UpdateReadWithCount
    playback.o(i.Playback_Process) refers to volumectrl.o(i.VolumeCtrl_VolumeFade) for VolumeCtrl_VolumeFade
    playback.o(i.Playback_Process) refers to pdmactrl.o(i.PdmaCtrl_Stop) for PdmaCtrl_Stop
    playback.o(i.Playback_Process) refers to pdmactrl.o(i.PdmaCtrl_Start) for PdmaCtrl_Start
    playback.o(i.Playback_Process) refers to playback.o(.data) for .data
    playback.o(i.Playback_Process) refers to volumectrl.o(.data) for g_sChannelVolInfo
    playback.o(i.Playback_Remove) refers to pdma.o(i.PDMA_DisableInt) for PDMA_DisableInt
    playback.o(i.Playback_Remove) refers to playback.o(i.Playback_StopPlay) for Playback_StopPlay
    playback.o(i.Playback_Remove) refers to playback.o(.data) for .data
    playback.o(i.Playback_ResetChannelVolume) refers to volumectrl.o(i.VolumeCtrl_Reset) for VolumeCtrl_Reset
    playback.o(i.Playback_ResetChannelVolume) refers to volumectrl.o(.data) for g_sChannelVolInfo
    playback.o(i.Playback_SetOutputBuf) refers to rt_memclr.o(.text) for __aeabi_memclr
    playback.o(i.Playback_SetPauseMute) refers to pdma.o(i.PDMA_DisableInt) for PDMA_DisableInt
    playback.o(i.Playback_SetPauseMute) refers to volumectrl.o(i.VolumeCtrl_SetVolumeDB) for VolumeCtrl_SetVolumeDB
    playback.o(i.Playback_SetPauseMute) refers to pdma.o(i.PDMA_EnableInt) for PDMA_EnableInt
    playback.o(i.Playback_SetPauseMute) refers to playback.o(.data) for .data
    playback.o(i.Playback_SetPauseMute) refers to volumectrl.o(.data) for g_sChannelVolInfo
    playback.o(i.Playback_SetVolumeDB) refers to volumectrl.o(i.VolumeCtrl_SetVolumeDB) for VolumeCtrl_SetVolumeDB
    playback.o(i.Playback_SetVolumeDB) refers to volumectrl.o(.data) for g_sChannelVolInfo
    playback.o(i.Playback_StartPlay) refers to micspk.o(i.SPK_Start) for SPK_Start
    playback.o(i.Playback_StartPlay) refers to pdmactrl.o(i.PdmaCtrl_Start) for PdmaCtrl_Start
    playback.o(i.Playback_StartPlay) refers to playback.o(.data) for .data
    playback.o(i.Playback_StartPlay) refers to interrupthandler.o(.bss) for g_ai16DACSamples
    playback.o(i.Playback_StartPlay) refers to main.o(.data) for g_u8AppCtrl
    playback.o(i.Playback_StopPlay) refers to pdma.o(i.PDMA_DisableInt) for PDMA_DisableInt
    playback.o(i.Playback_StopPlay) refers to pdma.o(i.PDMA_EnableInt) for PDMA_EnableInt
    playback.o(i.Playback_StopPlay) refers to micspk.o(i.SPK_Stop) for SPK_Stop
    playback.o(i.Playback_StopPlay) refers to playback.o(.data) for .data
    playback.o(i.Playback_StopPlay) refers to main.o(.data) for g_u8AppCtrl
    spiflashutil.o(i.SPIFlahUtil_StartWriteEncodeData) refers to spiflashutil.o(i.SPIFlashUtil_4KPagePartialWriteInitiate) for SPIFlashUtil_4KPagePartialWriteInitiate
    spiflashutil.o(i.SPIFlahUtil_StartWriteEncodeData) refers to spiflashutil.o(i.SPIFlashUtil_4KPagePartialWriteWithWait) for SPIFlashUtil_4KPagePartialWriteWithWait
    spiflashutil.o(i.SPIFlahUtil_StartWriteEncodeData) refers to spiflashutil.o(.data) for .data
    spiflashutil.o(i.SPIFlashUtil_4KPagePartialWriteInitiate) refers to spiflash.o(i.SPIFlash_EraseStart) for SPIFlash_EraseStart
    spiflashutil.o(i.SPIFlashUtil_4KPagePartialWriteInitiate) refers to spiflash.o(i.SPIFlash_WaitReady) for SPIFlash_WaitReady
    spiflashutil.o(i.SPIFlashUtil_4KPagePartialWriteInitiate) refers to spiflashutil.o(.data) for .data
    spiflashutil.o(i.SPIFlashUtil_4KPagePartialWriteInitiate) refers to main.o(.bss) for g_sSpiFlash
    spiflashutil.o(i.SPIFlashUtil_4KPagePartialWriteStart) refers to spiflashutil.o(.data) for .data
    spiflashutil.o(i.SPIFlashUtil_4KPagePartialWriteWithWait) refers to spiflashutil.o(i.SPIFlashUtil_4KPagePartialWriteStart) for SPIFlashUtil_4KPagePartialWriteStart
    spiflashutil.o(i.SPIFlashUtil_4KPagePartialWriteWithWait) refers to spiflashutil.o(i.SPIFlashUtil_4KPagePartialWriting) for SPIFlashUtil_4KPagePartialWriting
    spiflashutil.o(i.SPIFlashUtil_4KPagePartialWriting) refers to spiflash.o(i.SPIFlash_CheckBusy) for SPIFlash_CheckBusy
    spiflashutil.o(i.SPIFlashUtil_4KPagePartialWriting) refers to spiflash.o(i.SPIFlash_EraseStart) for SPIFlash_EraseStart
    spiflashutil.o(i.SPIFlashUtil_4KPagePartialWriting) refers to spiflash.o(i.SPIFlash_WriteStart) for SPIFlash_WriteStart
    spiflashutil.o(i.SPIFlashUtil_4KPagePartialWriting) refers to spiflash.o(i.SPIFlash_WriteData) for SPIFlash_WriteData
    spiflashutil.o(i.SPIFlashUtil_4KPagePartialWriting) refers to spiflash.o(i.SPIFlash_WriteEnd) for SPIFlash_WriteEnd
    spiflashutil.o(i.SPIFlashUtil_4KPagePartialWriting) refers to main.o(.bss) for g_sSpiFlash
    spiflashutil.o(i.SPIFlashUtil_4KPagePartialWriting) refers to spiflashutil.o(.data) for .data
    spiflashutil.o(i.SPIFlashUtil_EndWriteEncodeData) refers to spiflashutil.o(i.SPIFlashUtil_4KPagePartialWriting) for SPIFlashUtil_4KPagePartialWriting
    spiflashutil.o(i.SPIFlashUtil_EndWriteEncodeData) refers to spiflash.o(i.SPIFlash_Read) for SPIFlash_Read
    spiflashutil.o(i.SPIFlashUtil_EndWriteEncodeData) refers to spiflash.o(i.SPIFlash_Write) for SPIFlash_Write
    spiflashutil.o(i.SPIFlashUtil_EndWriteEncodeData) refers to spiflashutil.o(.data) for .data
    spiflashutil.o(i.SPIFlashUtil_EndWriteEncodeData) refers to main.o(.bss) for g_sSpiFlash
    spiflashutil.o(i.SPIFlashUtil_WriteEncodeData) refers to spiflashutil.o(i.SPIFlashUtil_4KPagePartialWriting) for SPIFlashUtil_4KPagePartialWriting
    spiflashutil.o(i.SPIFlashUtil_WriteEncodeData) refers to spiflashutil.o(i.SPIFlashUtil_4KPagePartialWriteStart) for SPIFlashUtil_4KPagePartialWriteStart
    volumectrl.o(i.VolumeCtrl_Process) refers to volumectrl.o(i.VolumeCtrl_VolumeFade) for VolumeCtrl_VolumeFade
    volumectrl.o(i.VolumeCtrl_Reset) refers to rt_memclr.o(.text) for __aeabi_memclr
    volumectrl.o(i.VolumeCtrl_SetVolumeDB) refers to aeabi_sdivfast.o(.text) for __aeabi_idivmod
    volumectrl.o(i.VolumeCtrl_SetVolumeDB) refers to volumectrl.o(.constdata) for .constdata
    volumectrl.o(i.VolumeCtrl_VolumeFade) refers to volumectrl.o(.constdata) for .constdata
    record.o(i.Record_Add) refers to micspk.o(i.MIC_ChangeSR) for MIC_ChangeSR
    record.o(i.Record_Add) refers to record.o(.data) for .data
    record.o(i.Record_Process) refers to pdmactrl.o(i.PdmaCtrl_Start) for PdmaCtrl_Start
    record.o(i.Record_Process) refers to bufctrl.o(i.BufCtrl_UpdateWriteWithCount) for BufCtrl_UpdateWriteWithCount
    record.o(i.Record_Process) refers to record.o(.data) for .data
    record.o(i.Record_SetInBufRecord) refers to rt_memclr.o(.text) for __aeabi_memclr
    record.o(i.Record_StartRec) refers to pdmactrl.o(i.PdmaCtrl_Start) for PdmaCtrl_Start
    record.o(i.Record_StartRec) refers to micspk.o(i.MIC_Start) for MIC_Start
    record.o(i.Record_StartRec) refers to main.o(.data) for g_u8AppCtrl
    record.o(i.Record_StartRec) refers to record.o(.data) for .data
    record.o(i.Record_StartRec) refers to interrupthandler.o(.bss) for g_ai16ADCSamples
    record.o(i.Record_StopRec) refers to pdmactrl.o(i.PdmaCtrl_Stop) for PdmaCtrl_Stop
    record.o(i.Record_StopRec) refers to micspk.o(i.MIC_Stop) for MIC_Stop
    record.o(i.Record_StopRec) refers to main.o(.data) for g_u8AppCtrl
    spiflash.o(i.SPIFlash_BurstRead) refers to spiflash.o(i.SPIFlash_ReadStart) for SPIFlash_ReadStart
    spiflash.o(i.SPIFlash_BurstRead) refers to spiflash.o(i.SPIFlash_ReadDataAlign) for SPIFlash_ReadDataAlign
    spiflash.o(i.SPIFlash_BurstRead) refers to spiflash.o(i.SPIFlash_ReadEnd) for SPIFlash_ReadEnd
    spiflash.o(i.SPIFlash_CheckBusy) refers to spiflash.o(i.SPIFlash_ReadStatusReg) for SPIFlash_ReadStatusReg
    spiflash.o(i.SPIFlash_ChipWriteEnable) refers to spiflash.o(i.SPIFlash_SendRecOneData) for SPIFlash_SendRecOneData
    spiflash.o(i.SPIFlash_ChipWriteEnable) refers to spiflash.o(i.SPIFlash_WaitReady) for SPIFlash_WaitReady
    spiflash.o(i.SPIFlash_EraseStart) refers to spiflash.o(i.SPIFlash_ChipWriteEnable) for SPIFlash_ChipWriteEnable
    spiflash.o(i.SPIFlash_EraseStart) refers to spiflash.o(i.SPIFlash_3ByteAddr_Cmd) for SPIFlash_3ByteAddr_Cmd
    spiflash.o(i.SPIFlash_GetChipInfo) refers to spiflash.o(i.SPIFlash_SendRecOneData) for SPIFlash_SendRecOneData
    spiflash.o(i.SPIFlash_GlobalProtect) refers to spiflash.o(i.SPIFlash_ReadStatusReg) for SPIFlash_ReadStatusReg
    spiflash.o(i.SPIFlash_GlobalProtect) refers to spiflash.o(i.SPIFlash_WriteStatusReg) for SPIFlash_WriteStatusReg
    spiflash.o(i.SPIFlash_Open) refers to spi.o(i.SPI_Open) for SPI_Open
    spiflash.o(i.SPIFlash_PowerDown) refers to spiflash.o(i.SPIFlash_SendRecOneData) for SPIFlash_SendRecOneData
    spiflash.o(i.SPIFlash_Read) refers to spiflash.o(i.SPIFlash_ReadStart) for SPIFlash_ReadStart
    spiflash.o(i.SPIFlash_Read) refers to spiflash.o(i.SPIFlash_ReadData) for SPIFlash_ReadData
    spiflash.o(i.SPIFlash_Read) refers to spiflash.o(i.SPIFlash_ReadEnd) for SPIFlash_ReadEnd
    spiflash.o(i.SPIFlash_ReadStart) refers to spiflash.o(i.SPIFlash_3ByteAddr_Cmd) for SPIFlash_3ByteAddr_Cmd
    spiflash.o(i.SPIFlash_ReadStatusReg) refers to spiflash.o(i.SPIFlash_SendRecOneData) for SPIFlash_SendRecOneData
    spiflash.o(i.SPIFlash_WaitReady) refers to spiflash.o(i.SPIFlash_ReadStatusReg) for SPIFlash_ReadStatusReg
    spiflash.o(i.SPIFlash_Write) refers to spiflash.o(i.SPIFlash_WriteStart) for SPIFlash_WriteStart
    spiflash.o(i.SPIFlash_Write) refers to spiflash.o(i.SPIFlash_WriteData) for SPIFlash_WriteData
    spiflash.o(i.SPIFlash_Write) refers to spiflash.o(i.SPIFlash_WriteEnd) for SPIFlash_WriteEnd
    spiflash.o(i.SPIFlash_Write) refers to spiflash.o(i.SPIFlash_WaitReady) for SPIFlash_WaitReady
    spiflash.o(i.SPIFlash_WritePage) refers to spiflash.o(i.SPIFlash_WriteStart) for SPIFlash_WriteStart
    spiflash.o(i.SPIFlash_WritePage) refers to spiflash.o(i.SPIFlash_WriteDataAlign) for SPIFlash_WriteDataAlign
    spiflash.o(i.SPIFlash_WritePage) refers to spiflash.o(i.SPIFlash_WriteEnd) for SPIFlash_WriteEnd
    spiflash.o(i.SPIFlash_WritePage) refers to spiflash.o(i.SPIFlash_WaitReady) for SPIFlash_WaitReady
    spiflash.o(i.SPIFlash_WriteStart) refers to spiflash.o(i.SPIFlash_ChipWriteEnable) for SPIFlash_ChipWriteEnable
    spiflash.o(i.SPIFlash_WriteStart) refers to spiflash.o(i.SPIFlash_3ByteAddr_Cmd) for SPIFlash_3ByteAddr_Cmd
    spiflash.o(i.SPIFlash_WriteStatusReg) refers to spiflash.o(i.SPIFlash_ChipWriteEnable) for SPIFlash_ChipWriteEnable
    spiflash.o(i.SPIFlash_WriteStatusReg) refers to spiflash.o(i.SPIFlash_SendRecOneData) for SPIFlash_SendRecOneData
    spiflash.o(i.SPIFlash_WriteStatusReg) refers to spiflash.o(i.SPIFlash_WaitReady) for SPIFlash_WaitReady
    keypad.o(i.Keypad_GetTouchEnablePin) refers to keypad.o(.bss) for .bss
    keypad.o(i.Keypad_InitKey) refers to keypad.o(i.Keypad_InitKeyMatrixPort) for Keypad_InitKeyMatrixPort
    keypad.o(i.Keypad_InitKey) refers to keypad.o(.bss) for .bss
    keypad.o(i.Keypad_InitKeyMatrixPort) refers to keypad.o(.bss) for .bss
    keypad.o(i.Keypad_InitKeypad) refers to keypad.o(.data) for .data
    keypad.o(i.Keypad_InitTgr) refers to keypad.o(.bss) for .bss
    keypad.o(i.Keypad_InitTouch) refers to keypad.o(i.Keypad_GetTouchEnablePin) for Keypad_GetTouchEnablePin
    keypad.o(i.Keypad_InitTouch) refers to gpio.o(i.GPIO_SetMode) for GPIO_SetMode
    keypad.o(i.Keypad_InitTouch) refers to capsense.o(i.CapSense_SelectCurrentSourceValue) for CapSense_SelectCurrentSourceValue
    keypad.o(i.Keypad_InitTouch) refers to capsense.o(i.CapSense_SetCycleCounts) for CapSense_SetCycleCounts
    keypad.o(i.Keypad_InitTouch) refers to keypad.o(i.Keypad_TouchCalibration) for Keypad_TouchCalibration
    keypad.o(i.Keypad_InitTouch) refers to keypad.o(i.Keypad_TouchStartIRQ) for Keypad_TouchStartIRQ
    keypad.o(i.Keypad_InitTouch) refers to keypad.o(.bss) for .bss
    keypad.o(i.Keypad_KeyDecDebounceCounter) refers to keypad.o(.bss) for .bss
    keypad.o(i.Keypad_KeyDecDebounceCounter) refers to keypad.o(.data) for .data
    keypad.o(i.Keypad_KeyMapHandler) refers to keypad.o(.bss) for .bss
    keypad.o(i.Keypad_KeyTouchPressCounter) refers to keypad.o(.bss) for .bss
    keypad.o(i.Keypad_ResetKey) refers to keypad.o(.bss) for .bss
    keypad.o(i.Keypad_ResetKey) refers to keypad.o(.data) for .data
    keypad.o(i.Keypad_ResetTgr) refers to keypad.o(.bss) for .bss
    keypad.o(i.Keypad_ResetTgr) refers to keypad.o(.data) for .data
    keypad.o(i.Keypad_ScanKey) refers to keypad.o(i.Keypad_ScanKeyPort) for Keypad_ScanKeyPort
    keypad.o(i.Keypad_ScanKey) refers to keypad.o(i.Keypad_KeyMapHandler) for Keypad_KeyMapHandler
    keypad.o(i.Keypad_ScanKey) refers to keypad.o(.bss) for .bss
    keypad.o(i.Keypad_ScanKey) refers to keypad.o(.data) for .data
    keypad.o(i.Keypad_ScanKeyPort) refers to keypad.o(.bss) for .bss
    keypad.o(i.Keypad_ScanKeyPort) refers to keypad.o(.data) for .data
    keypad.o(i.Keypad_ScanTgr) refers to keypad.o(i.Keypad_ScanTgrPort) for Keypad_ScanTgrPort
    keypad.o(i.Keypad_ScanTgr) refers to keypad.o(i.Keypad_TgrMapHandler) for Keypad_TgrMapHandler
    keypad.o(i.Keypad_ScanTgr) refers to keypad.o(.bss) for .bss
    keypad.o(i.Keypad_ScanTgr) refers to keypad.o(.data) for .data
    keypad.o(i.Keypad_ScanTgrPort) refers to keypad.o(.bss) for .bss
    keypad.o(i.Keypad_ScanTgrPort) refers to keypad.o(.data) for .data
    keypad.o(i.Keypad_ScanTouch) refers to keypad.o(i.Keypad_TouchCaptureState) for Keypad_TouchCaptureState
    keypad.o(i.Keypad_ScanTouch) refers to keypad.o(i.Keypad_TouchMapHandler) for Keypad_TouchMapHandler
    keypad.o(i.Keypad_ScanTouch) refers to keypad.o(i.Keypad_GetTouchEnablePin) for Keypad_GetTouchEnablePin
    keypad.o(i.Keypad_ScanTouch) refers to keypad.o(i.Keypad_TouchStartIRQ) for Keypad_TouchStartIRQ
    keypad.o(i.Keypad_ScanTouch) refers to keypad.o(.data) for .data
    keypad.o(i.Keypad_ScanTouch) refers to keypad.o(.bss) for .bss
    keypad.o(i.Keypad_TgrDecDebounceCounter) refers to keypad.o(.bss) for .bss
    keypad.o(i.Keypad_TgrDecDebounceCounter) refers to keypad.o(.data) for .data
    keypad.o(i.Keypad_TgrMapHandler) refers to keypad.o(.bss) for .bss
    keypad.o(i.Keypad_TouchCalibration) refers to keypad.o(i.Keypad_TouchStartIRQ) for Keypad_TouchStartIRQ
    keypad.o(i.Keypad_TouchCalibration) refers to capsense.o(i.CapSense_GetCounter) for CapSense_GetCounter
    keypad.o(i.Keypad_TouchCalibration) refers to keypad.o(.bss) for .bss
    keypad.o(i.Keypad_TouchCalibration) refers to keypad.o(.data) for .data
    keypad.o(i.Keypad_TouchCapSense) refers to keypad.o(.data) for .data
    keypad.o(i.Keypad_TouchCaptureState) refers to capsense.o(i.CapSense_GetCounter) for CapSense_GetCounter
    keypad.o(i.Keypad_TouchCaptureState) refers to keypad.o(.bss) for .bss
    keypad.o(i.Keypad_TouchMapHandler) refers to keypad.o(.bss) for .bss
    keypad.o(i.Keypad_TouchMapHandler) refers to keypad.o(.data) for .data
    keypad.o(i.Keypad_TouchStartIRQ) refers to capsense.o(i.CapSense_ResetCounter) for CapSense_ResetCounter
    adc.o(i.ADC_GetSampleRate) refers to clk.o(i.CLK_GetHCLKFreq) for CLK_GetHCLKFreq
    adc.o(i.ADC_GetSampleRate) refers to aeabi_sdivfast.o(.text) for __aeabi_uidivmod
    adc.o(i.ADC_SetALCMaxGaindB) refers to aeabi_sdivfast.o(.text) for __aeabi_idivmod
    adc.o(i.ADC_SetALCMinGaindB) refers to aeabi_sdivfast.o(.text) for __aeabi_idivmod
    adc.o(i.ADC_SetALCTargetLevel) refers to aeabi_sdivfast.o(.text) for __aeabi_idivmod
    adc.o(i.ADC_SetGPIOChannel) refers to adc.o(i.ADC_SetAMUX) for ADC_SetAMUX
    adc.o(i.ADC_SetGPIOChannel) refers to gpio.o(i.GPIO_SetMode) for GPIO_SetMode
    adc.o(i.ADC_SetPGAGaindB) refers to aeabi_sdivfast.o(.text) for __aeabi_idivmod
    bod.o(i.BOD_Open) refers to sys.o(i.SYS_Unlock) for SYS_Unlock
    bod.o(i.BOD_Open) refers to sys.o(i.SYS_Lock) for SYS_Lock
    clk.o(i.CLK_DeepPowerDown) refers to sys.o(i.SYS_Unlock) for SYS_Unlock
    clk.o(i.CLK_DeepPowerDown) refers to sys.o(i.SYS_Lock) for SYS_Lock
    clk.o(i.CLK_DeepSleep) refers to sys.o(i.SYS_Unlock) for SYS_Unlock
    clk.o(i.CLK_DeepSleep) refers to sys.o(i.SYS_Lock) for SYS_Lock
    clk.o(i.CLK_DisableLDO) refers to sys.o(i.SYS_Unlock) for SYS_Unlock
    clk.o(i.CLK_DisableLDO) refers to sys.o(i.SYS_Lock) for SYS_Lock
    clk.o(i.CLK_DisableXtalRC) refers to sys.o(i.SYS_Unlock) for SYS_Unlock
    clk.o(i.CLK_DisableXtalRC) refers to sys.o(i.SYS_Lock) for SYS_Lock
    clk.o(i.CLK_EnableLDO) refers to sys.o(i.SYS_Unlock) for SYS_Unlock
    clk.o(i.CLK_EnableLDO) refers to sys.o(i.SYS_Lock) for SYS_Lock
    clk.o(i.CLK_EnableXtalRC) refers to sys.o(i.SYS_Unlock) for SYS_Unlock
    clk.o(i.CLK_EnableXtalRC) refers to sys.o(i.SYS_Lock) for SYS_Lock
    clk.o(i.CLK_GetHCLKFreq) refers to system_isd9100.o(i.SystemCoreClockUpdate) for SystemCoreClockUpdate
    clk.o(i.CLK_GetHCLKFreq) refers to system_isd9100.o(.data) for SystemCoreClock
    clk.o(i.CLK_GetHIRCFreq) refers to system_isd9100.o(.data) for gau32HiRCSrcTbl
    clk.o(i.CLK_SetHCLK) refers to sys.o(i.SYS_Unlock) for SYS_Unlock
    clk.o(i.CLK_SetHCLK) refers to sys.o(i.SYS_Lock) for SYS_Lock
    clk.o(i.CLK_SetHCLK) refers to system_isd9100.o(i.SystemCoreClockUpdate) for SystemCoreClockUpdate
    clk.o(i.CLK_SetSysTickClockSrc) refers to sys.o(i.SYS_Unlock) for SYS_Unlock
    clk.o(i.CLK_SetSysTickClockSrc) refers to sys.o(i.SYS_Lock) for SYS_Lock
    clk.o(i.CLK_Sleep) refers to sys.o(i.SYS_Unlock) for SYS_Unlock
    clk.o(i.CLK_Sleep) refers to sys.o(i.SYS_Lock) for SYS_Lock
    clk.o(i.CLK_StandbyPowerDown) refers to sys.o(i.SYS_Unlock) for SYS_Unlock
    clk.o(i.CLK_StandbyPowerDown) refers to sys.o(i.SYS_Lock) for SYS_Lock
    clk.o(i.CLK_SysTickDelay) refers to system_isd9100.o(.data) for CyclesPerUs
    crc.o(i.CRC_Close) refers to clk.o(i.CLK_DisableModuleClock) for CLK_DisableModuleClock
    crc.o(i.CRC_Open) refers to clk.o(i.CLK_EnableModuleClock) for CLK_EnableModuleClock
    dpwm.o(i.DPWM_GetSampleRate) refers to system_isd9100.o(i.SystemCoreClockUpdate) for SystemCoreClockUpdate
    dpwm.o(i.DPWM_GetSampleRate) refers to aeabi_sdivfast.o(.text) for __aeabi_uidivmod
    dpwm.o(i.DPWM_GetSampleRate) refers to system_isd9100.o(.data) for SystemCoreClock
    dpwm.o(i.DPWM_SetSampleRate) refers to system_isd9100.o(i.SystemCoreClockUpdate) for SystemCoreClockUpdate
    dpwm.o(i.DPWM_SetSampleRate) refers to aeabi_sdivfast.o(.text) for __aeabi_uidivmod
    dpwm.o(i.DPWM_SetSampleRate) refers to system_isd9100.o(.data) for SystemCoreClock
    fmc.o(i.FMC_ReadConfig) refers to fmc.o(i.FMC_Read) for FMC_Read
    fmc.o(i.FMC_WriteConfig) refers to fmc.o(i.FMC_Erase) for FMC_Erase
    fmc.o(i.FMC_WriteConfig) refers to fmc.o(i.FMC_Write) for FMC_Write
    fmc.o(i.FMC_WriteConfig) refers to fmc.o(i.FMC_Read) for FMC_Read
    i2c.o(i.I2C_GetBusClockFreq) refers to aeabi_sdivfast.o(.text) for __aeabi_uidivmod
    i2c.o(i.I2C_GetBusClockFreq) refers to system_isd9100.o(.data) for SystemCoreClock
    i2c.o(i.I2C_Open) refers to aeabi_sdivfast.o(.text) for __aeabi_uidivmod
    i2c.o(i.I2C_Open) refers to system_isd9100.o(.data) for SystemCoreClock
    i2c.o(i.I2C_SetBusClockFreq) refers to aeabi_sdivfast.o(.text) for __aeabi_uidivmod
    i2c.o(i.I2C_SetBusClockFreq) refers to system_isd9100.o(.data) for SystemCoreClock
    i2s.o(i.I2S_EnableMCLK) refers to i2s.o(i.I2S_GetSourceClockFreq) for I2S_GetSourceClockFreq
    i2s.o(i.I2S_EnableMCLK) refers to aeabi_sdivfast.o(.text) for __aeabi_uidivmod
    i2s.o(i.I2S_GetSourceClockFreq) refers to clk.o(i.CLK_GetHCLKFreq) for CLK_GetHCLKFreq
    i2s.o(i.I2S_Open) refers to i2s.o(i.I2S_GetSourceClockFreq) for I2S_GetSourceClockFreq
    i2s.o(i.I2S_Open) refers to aeabi_sdivfast.o(.text) for __aeabi_uidivmod
    pdma.o(i.PDMA_SetTransferMode) refers to appfunctions.o(i.__ARM_common_switch8) for __ARM_common_switch8
    pwm.o(i.PWM_ConfigCaptureChannel) refers to rt_memcpy.o(.emb_text) for __aeabi_memcpy4
    pwm.o(i.PWM_ConfigCaptureChannel) refers to aeabi_sdivfast.o(.text) for __aeabi_uidivmod
    pwm.o(i.PWM_ConfigCaptureChannel) refers to system_isd9100.o(i.SystemCoreClockUpdate) for SystemCoreClockUpdate
    pwm.o(i.PWM_ConfigCaptureChannel) refers to clk.o(i.CLK_GetHCLKFreq) for CLK_GetHCLKFreq
    pwm.o(i.PWM_ConfigCaptureChannel) refers to pwm.o(.constdata) for .constdata
    pwm.o(i.PWM_ConfigOutputChannel) refers to rt_memcpy.o(.emb_text) for __aeabi_memcpy4
    pwm.o(i.PWM_ConfigOutputChannel) refers to aeabi_sdivfast.o(.text) for __aeabi_uidivmod
    pwm.o(i.PWM_ConfigOutputChannel) refers to system_isd9100.o(i.SystemCoreClockUpdate) for SystemCoreClockUpdate
    pwm.o(i.PWM_ConfigOutputChannel) refers to clk.o(i.CLK_GetHCLKFreq) for CLK_GetHCLKFreq
    pwm.o(i.PWM_ConfigOutputChannel) refers to pwm.o(.constdata) for .constdata
    rtc.o(i.RTC_32KCalibration) refers to aeabi_sdivfast.o(.text) for __aeabi_idivmod
    rtc.o(i.RTC_GetAlarmDateAndTime) refers to rtc.o(.data) for .data
    rtc.o(i.RTC_GetDateAndTime) refers to rtc.o(.data) for .data
    rtc.o(i.RTC_Open) refers to aeabi_sdivfast.o(.text) for __aeabi_uidivmod
    rtc.o(i.RTC_Open) refers to rtc.o(.data) for .data
    rtc.o(i.RTC_SetAlarmDate) refers to aeabi_sdivfast.o(.text) for __aeabi_uidivmod
    rtc.o(i.RTC_SetAlarmDate) refers to rtc.o(.data) for .data
    rtc.o(i.RTC_SetAlarmDateAndTime) refers to aeabi_sdivfast.o(.text) for __aeabi_uidivmod
    rtc.o(i.RTC_SetAlarmDateAndTime) refers to rtc.o(.data) for .data
    rtc.o(i.RTC_SetAlarmTime) refers to aeabi_sdivfast.o(.text) for __aeabi_uidivmod
    rtc.o(i.RTC_SetAlarmTime) refers to rtc.o(.data) for .data
    rtc.o(i.RTC_SetDate) refers to aeabi_sdivfast.o(.text) for __aeabi_uidivmod
    rtc.o(i.RTC_SetDate) refers to rtc.o(.data) for .data
    rtc.o(i.RTC_SetDateAndTime) refers to aeabi_sdivfast.o(.text) for __aeabi_uidivmod
    rtc.o(i.RTC_SetDateAndTime) refers to rtc.o(.data) for .data
    rtc.o(i.RTC_SetTime) refers to aeabi_sdivfast.o(.text) for __aeabi_uidivmod
    rtc.o(i.RTC_SetTime) refers to rtc.o(.data) for .data
    spi.o(i.SPI_GetBusClock) refers to clk.o(i.CLK_GetHCLKFreq) for CLK_GetHCLKFreq
    spi.o(i.SPI_GetBusClock) refers to aeabi_sdivfast.o(.text) for __aeabi_uidivmod
    spi.o(i.SPI_GetVarClock) refers to clk.o(i.CLK_GetHCLKFreq) for CLK_GetHCLKFreq
    spi.o(i.SPI_GetVarClock) refers to aeabi_sdivfast.o(.text) for __aeabi_uidivmod
    spi.o(i.SPI_Open) refers to spi.o(i.SPI_SetVarClock) for SPI_SetVarClock
    spi.o(i.SPI_Open) refers to spi.o(i.SPI_SetBusClock) for SPI_SetBusClock
    spi.o(i.SPI_Open) refers to spi.o(i.SPI_GetBusClock) for SPI_GetBusClock
    spi.o(i.SPI_SetBusClock) refers to clk.o(i.CLK_GetHCLKFreq) for CLK_GetHCLKFreq
    spi.o(i.SPI_SetBusClock) refers to aeabi_sdivfast.o(.text) for __aeabi_uidivmod
    spi.o(i.SPI_SetVarClock) refers to clk.o(i.CLK_GetHCLKFreq) for CLK_GetHCLKFreq
    spi.o(i.SPI_SetVarClock) refers to aeabi_sdivfast.o(.text) for __aeabi_uidivmod
    sys.o(i.SYS_ResetCPU) refers to sys.o(i.SYS_Unlock) for SYS_Unlock
    sys.o(i.SYS_ResetCPU) refers to sys.o(i.SYS_Lock) for SYS_Lock
    sys.o(i.SYS_ResetChip) refers to sys.o(i.SYS_Unlock) for SYS_Unlock
    sys.o(i.SYS_ResetChip) refers to sys.o(i.SYS_Lock) for SYS_Lock
    talarm.o(i.TALARM_Open) refers to sys.o(i.SYS_Unlock) for SYS_Unlock
    talarm.o(i.TALARM_Open) refers to sys.o(i.SYS_Lock) for SYS_Lock
    timer.o(i.TIMER_Delay) refers to timer.o(i.TIMER_GetModuleClock) for TIMER_GetModuleClock
    timer.o(i.TIMER_Delay) refers to aeabi_sdivfast.o(.text) for __aeabi_uidivmod
    timer.o(i.TIMER_Delay) refers to dflti.o(.text) for __aeabi_ui2d
    timer.o(i.TIMER_Delay) refers to dfixui.o(.text) for __aeabi_d2uiz
    timer.o(i.TIMER_Delay) refers to system_isd9100.o(.data) for SystemCoreClock
    timer.o(i.TIMER_GetModuleClock) refers to rt_memcpy.o(.emb_text) for __aeabi_memcpy4
    timer.o(i.TIMER_GetModuleClock) refers to timer.o(.constdata) for .constdata
    timer.o(i.TIMER_GetModuleClock) refers to system_isd9100.o(.data) for SystemCoreClock
    timer.o(i.TIMER_GetWorkingFreq) refers to timer.o(i.TIMER_GetModuleClock) for TIMER_GetModuleClock
    timer.o(i.TIMER_GetWorkingFreq) refers to aeabi_sdivfast.o(.text) for __aeabi_uidivmod
    timer.o(i.TIMER_Open) refers to timer.o(i.TIMER_GetModuleClock) for TIMER_GetModuleClock
    timer.o(i.TIMER_Open) refers to aeabi_sdivfast.o(.text) for __aeabi_uidivmod
    uart.o(i.UART_Open) refers to clk.o(i.CLK_GetHCLKFreq) for CLK_GetHCLKFreq
    uart.o(i.UART_Open) refers to aeabi_sdivfast.o(.text) for __aeabi_uidivmod
    uart.o(i.UART_SetLine_Config) refers to clk.o(i.CLK_GetHCLKFreq) for CLK_GetHCLKFreq
    uart.o(i.UART_SetLine_Config) refers to aeabi_sdivfast.o(.text) for __aeabi_uidivmod
    wdt.o(i.WDT_ClearResetFlag) refers to sys.o(i.SYS_Unlock) for SYS_Unlock
    wdt.o(i.WDT_ClearResetFlag) refers to sys.o(i.SYS_Lock) for SYS_Lock
    wdt.o(i.WDT_ClearTimeOutIntFlag) refers to sys.o(i.SYS_Unlock) for SYS_Unlock
    wdt.o(i.WDT_ClearTimeOutIntFlag) refers to sys.o(i.SYS_Lock) for SYS_Lock
    wdt.o(i.WDT_Close) refers to sys.o(i.SYS_Unlock) for SYS_Unlock
    wdt.o(i.WDT_Close) refers to sys.o(i.SYS_Lock) for SYS_Lock
    wdt.o(i.WDT_DisableInt) refers to sys.o(i.SYS_Unlock) for SYS_Unlock
    wdt.o(i.WDT_DisableInt) refers to sys.o(i.SYS_Lock) for SYS_Lock
    wdt.o(i.WDT_EnableInt) refers to sys.o(i.SYS_Unlock) for SYS_Unlock
    wdt.o(i.WDT_EnableInt) refers to sys.o(i.SYS_Lock) for SYS_Lock
    wdt.o(i.WDT_Open) refers to sys.o(i.SYS_Unlock) for SYS_Unlock
    wdt.o(i.WDT_Open) refers to sys.o(i.SYS_Lock) for SYS_Lock
    wdt.o(i.WDT_ResetCounter) refers to sys.o(i.SYS_Unlock) for SYS_Unlock
    wdt.o(i.WDT_ResetCounter) refers to sys.o(i.SYS_Lock) for SYS_Lock
    retarget.o(i.Hard_Fault_Handler) refers to noretval__2printf.o(.text) for __2printf
    retarget.o(i.Hard_Fault_Handler) refers to retarget.o(i.stackDump) for stackDump
    retarget.o(i.SendChar) refers to retarget.o(i.SendChar_ToUART) for SendChar_ToUART
    retarget.o(i._ttywrch) refers to retarget.o(i.SendChar_ToUART) for SendChar_ToUART
    retarget.o(i.fgetc) refers to retarget.o(i.GetChar) for GetChar
    retarget.o(i.fputc) refers to retarget.o(i.SendChar_ToUART) for SendChar_ToUART
    retarget.o(i.stackDump) refers to _printf_percent.o(.ARM.Collect$$_printf_percent$$00000000) for _printf_percent
    retarget.o(i.stackDump) refers to _printf_x.o(.ARM.Collect$$_printf_percent$$0000000C) for _printf_x
    retarget.o(i.stackDump) refers to _printf_hex_int.o(.text) for _printf_longlong_hex
    retarget.o(i.stackDump) refers to noretval__2printf.o(.text) for __2printf
    md4decode.o(i.MD4_DecodeFrame) refers to md4decode.o(i.MD4_CheckResLdr) for MD4_CheckResLdr
    md4decode.o(i.MD4_DecodeFrame) refers to md4decode.o(.constdata) for .constdata
    md4decode.o(i.MD4_DecodeInitiate) refers to rt_memclr.o(.text) for __aeabi_memclr4
    md4decode.o(i.MD4_DecodeProcess) refers to rt_memclr.o(.text) for __aeabi_memclr
    md4decode.o(i.MD4_DecodeProcess) refers to md4decode.o(i.MD4_CheckResLdr) for MD4_CheckResLdr
    md4decode.o(i.MD4_DecodeProcess) refers to appfunctions.o(i.__ARM_common_switch8) for __ARM_common_switch8
    md4decode.o(i.MD4_DecodeProcess) refers to md4decode.o(i.MD4_DecodeFrame) for MD4_DecodeFrame
    CSpotterSDKApi.o(i.CSpotter_AddSample) refers to BsrGo.o(i.NINJA_API_13) for NINJA_API_13
    CSpotterSDKApi.o(i.CSpotter_AddSample) refers to BsrGo.o(i.NINJA_API_15) for NINJA_API_15
    CSpotterSDKApi.o(i.CSpotter_AddSample) refers to BsrGo.o(i.NINJA_API_23) for NINJA_API_23
    CSpotterSDKApi.o(i.CSpotter_GetMemoryUsage_Multi) refers to CSpotterSDKApi.o(i.CSpotter_GetMemoryUsage_MultiWithSpeakerAndExtRejModel) for CSpotter_GetMemoryUsage_MultiWithSpeakerAndExtRejModel
    CSpotterSDKApi.o(i.CSpotter_GetMemoryUsage_MultiWithExtRejModel) refers to CSpotterSDKApi.o(i.CSpotter_GetMemoryUsage_MultiWithSpeakerAndExtRejModel) for CSpotter_GetMemoryUsage_MultiWithSpeakerAndExtRejModel
    CSpotterSDKApi.o(i.CSpotter_GetMemoryUsage_MultiWithSpeaker) refers to CSpotterSDKApi.o(i.CSpotter_GetMemoryUsage_MultiWithSpeakerAndExtRejModel) for CSpotter_GetMemoryUsage_MultiWithSpeakerAndExtRejModel
    CSpotterSDKApi.o(i.CSpotter_GetMemoryUsage_MultiWithSpeakerAndExtRejModel) refers to BsrGo.o(i.NINJA_API_1) for NINJA_API_1
    CSpotterSDKApi.o(i.CSpotter_GetMemoryUsage_MultiWithSpeakerAndExtRejModel) refers to BsrGo.o(i.NINJA_API_75) for NINJA_API_75
    CSpotterSDKApi.o(i.CSpotter_GetMemoryUsage_Sep) refers to CSpotterSDKApi.o(i.CSpotter_GetMemoryUsage_MultiWithSpeakerAndExtRejModel) for CSpotter_GetMemoryUsage_MultiWithSpeakerAndExtRejModel
    CSpotterSDKApi.o(i.CSpotter_GetMemoryUsage_SepWithExtRejModel) refers to CSpotterSDKApi.o(i.CSpotter_GetMemoryUsage_MultiWithSpeakerAndExtRejModel) for CSpotter_GetMemoryUsage_MultiWithSpeakerAndExtRejModel
    CSpotterSDKApi.o(i.CSpotter_GetMemoryUsage_SepWithSpeaker) refers to CSpotterSDKApi.o(i.CSpotter_GetMemoryUsage_MultiWithSpeakerAndExtRejModel) for CSpotter_GetMemoryUsage_MultiWithSpeakerAndExtRejModel
    CSpotterSDKApi.o(i.CSpotter_GetMemoryUsage_SepWithSpeakerAndExtRejModel) refers to CSpotterSDKApi.o(i.CSpotter_GetMemoryUsage_MultiWithSpeakerAndExtRejModel) for CSpotter_GetMemoryUsage_MultiWithSpeakerAndExtRejModel
    CSpotterSDKApi.o(i.CSpotter_GetNBestScore) refers to BsrGo.o(i.NINJA_API_62) for NINJA_API_62
    CSpotterSDKApi.o(i.CSpotter_GetNBestScore) refers to BsrGo.o(i.NINJA_API_29) for NINJA_API_29
    CSpotterSDKApi.o(i.CSpotter_GetNumWord) refers to BsrAli.o(i.BsrJosh) for BsrJosh
    CSpotterSDKApi.o(i.CSpotter_GetNumWord) refers to BsrGo.o(i.NINJA_API_31) for NINJA_API_31
    CSpotterSDKApi.o(i.CSpotter_GetResult) refers to BsrGo.o(i.NINJA_API_47) for NINJA_API_47
    CSpotterSDKApi.o(i.CSpotter_GetResult) refers to BsrGo.o(i.NINJA_API_55) for NINJA_API_55
    CSpotterSDKApi.o(i.CSpotter_GetResultCmdModel) refers to BsrAli.o(i.BsrJosh) for BsrJosh
    CSpotterSDKApi.o(i.CSpotter_GetResultCmdModel) refers to BsrGo.o(i.NINJA_API_31) for NINJA_API_31
    CSpotterSDKApi.o(i.CSpotter_GetResultCmdModel) refers to CSpotterSDKApi.o(i.CSpotter_GetNumWord) for i.CSpotter_GetNumWord
    CSpotterSDKApi.o(i.CSpotter_GetResultEPD) refers to BsrGo.o(i.NINJA_API_43) for NINJA_API_43
    CSpotterSDKApi.o(i.CSpotter_GetResultScore) refers to BsrGo.o(i.NINJA_API_28) for NINJA_API_28
    CSpotterSDKApi.o(i.CSpotter_GetResultScore) refers to BsrGo.o(i.NINJA_API_29) for NINJA_API_29
    CSpotterSDKApi.o(i.CSpotter_GetStateSize) refers to BsrGo.o(i.NINJA_API_1) for NINJA_API_1
    CSpotterSDKApi.o(i.CSpotter_GetStateSize) refers to aeabi_sdivfast.o(.text) for __aeabi_idivmod
    CSpotterSDKApi.o(i.CSpotter_Init_Multi) refers to CSpotterSDKApi.o(i.CSpotter_Init_MultiWithExtRejModel) for CSpotter_Init_MultiWithExtRejModel
    CSpotterSDKApi.o(i.CSpotter_Init_MultiWithExtRejModel) refers to BsrGo.o(i.NINJA_API_1) for NINJA_API_1
    CSpotterSDKApi.o(i.CSpotter_Init_MultiWithExtRejModel) refers to CSpotterSDKApi.o(i.CSpotter_GetMemoryUsage_MultiWithSpeakerAndExtRejModel) for CSpotter_GetMemoryUsage_MultiWithSpeakerAndExtRejModel
    CSpotterSDKApi.o(i.CSpotter_Init_MultiWithExtRejModel) refers to BsrAli.o(i.BsrJohn) for BsrJohn
    CSpotterSDKApi.o(i.CSpotter_Init_MultiWithExtRejModel) refers to BsrGo.o(i.NINJA_API_73) for NINJA_API_73
    CSpotterSDKApi.o(i.CSpotter_Init_MultiWithExtRejModel) refers to BsrGo.o(i.NINJA_API_47) for NINJA_API_47
    CSpotterSDKApi.o(i.CSpotter_Init_MultiWithExtRejModel) refers to BsrGo.o(i.NINJA_API_55) for NINJA_API_55
    CSpotterSDKApi.o(i.CSpotter_Init_MultiWithExtRejModel) refers to BsrGo.o(i.NINJA_API_48) for NINJA_API_48
    CSpotterSDKApi.o(i.CSpotter_Init_MultiWithExtRejModel) refers to BsrGo.o(i.NINJA_API_56) for NINJA_API_56
    CSpotterSDKApi.o(i.CSpotter_Init_MultiWithExtRejModel) refers to BsrGo.o(i.NINJA_API_19) for NINJA_API_19
    CSpotterSDKApi.o(i.CSpotter_Init_MultiWithExtRejModel) refers to BsrGo.o(i.NINJA_API_26) for NINJA_API_26
    CSpotterSDKApi.o(i.CSpotter_Init_MultiWithExtRejModel) refers to BsrGo.o(i.NINJA_API_2) for NINJA_API_2
    CSpotterSDKApi.o(i.CSpotter_Init_MultiWithExtRejModel) refers to BsrGo.o(i.NINJA_API_15) for NINJA_API_15
    CSpotterSDKApi.o(i.CSpotter_Init_Sep) refers to CSpotterSDKApi.o(i.CSpotter_Init_MultiWithExtRejModel) for CSpotter_Init_MultiWithExtRejModel
    CSpotterSDKApi.o(i.CSpotter_Init_SepWithExtRejModel) refers to CSpotterSDKApi.o(i.CSpotter_Init_MultiWithExtRejModel) for CSpotter_Init_MultiWithExtRejModel
    CSpotterSDKApi.o(i.CSpotter_IsActiveCmd) refers to BsrAli.o(i.BsrJosh) for BsrJosh
    CSpotterSDKApi.o(i.CSpotter_IsActiveCmd) refers to BsrGo.o(i.NINJA_API_50) for NINJA_API_50
    CSpotterSDKApi.o(i.CSpotter_IsVoiceActive) refers to BsrGo.o(i.NINJA_API_27) for NINJA_API_27
    CSpotterSDKApi.o(i.CSpotter_Release) refers to BsrGo.o(i.NINJA_API_47) for NINJA_API_47
    CSpotterSDKApi.o(i.CSpotter_Release) refers to BsrGo.o(i.NINJA_API_55) for NINJA_API_55
    CSpotterSDKApi.o(i.CSpotter_Release) refers to BsrGo.o(i.NINJA_API_2) for NINJA_API_2
    CSpotterSDKApi.o(i.CSpotter_Reset) refers to BsrGo.o(i.NINJA_API_3) for NINJA_API_3
    CSpotterSDKApi.o(i.CSpotter_SetCmdResponseReward) refers to BsrGo.o(i.NINJA_API_18) for NINJA_API_18
    CSpotterSDKApi.o(i.CSpotter_SetCmdReward) refers to BsrGo.o(i.NINJA_API_17) for NINJA_API_17
    CSpotterSDKApi.o(i.CSpotter_SetEnableNBest) refers to BsrGo.o(i.NINJA_API_66) for NINJA_API_66
    CSpotterSDKApi.o(i.CSpotter_SetEnableRejectedResult) refers to BsrGo.o(i.NINJA_API_22) for NINJA_API_22
    CSpotterSDKApi.o(i.CSpotter_SetEndStateRange) refers to BsrGo.o(i.NINJA_API_20) for NINJA_API_20
    CSpotterSDKApi.o(i.CSpotter_SetFreqWarpFactor) refers to BsrGo.o(i.NINJA_API_46) for NINJA_API_46
    CSpotterSDKApi.o(i.CSpotter_SetMinEnergyThreshd) refers to BsrGo.o(i.NINJA_API_49) for NINJA_API_49
    CSpotterSDKApi.o(i.CSpotter_SetOLGarbThreshd) refers to BsrGo.o(i.NINJA_API_71) for NINJA_API_71
    CSpotterSDKApi.o(i.CSpotter_SetPartialRejectLevel) refers to BsrGo.o(i.NINJA_API_67) for NINJA_API_67
    CSpotterSDKApi.o(i.CSpotter_SetPartialRejectLevel) refers to BsrGo.o(i.NINJA_API_68) for NINJA_API_68
    CSpotterSDKApi.o(i.CSpotter_SetPartialRejectStateNum) refers to BsrGo.o(i.NINJA_API_69) for NINJA_API_69
    CSpotterSDKApi.o(i.CSpotter_SetRejectedResultEnergyThreshd) refers to BsrGo.o(i.NINJA_API_25) for NINJA_API_25
    CSpotterSDKApi.o(i.CSpotter_SetRejectionLevel) refers to BsrGo.o(i.NINJA_API_15) for NINJA_API_15
    CSpotterSDKApi.o(i.CSpotter_SetResponseTime) refers to BsrGo.o(i.NINJA_API_16) for NINJA_API_16
    CSpotterSDKApi.o(i.CSpotter_SetResultMapID) refers to BsrAli.o(i.BsrJosh) for BsrJosh
    CSpotterSDKApi.o(i.CSpotter_SetResultMapID) refers to BsrGo.o(i.NINJA_API_31) for NINJA_API_31
    CSpotterSDKApi.o(i.CSpotter_SetResultMapID) refers to CSpotterSDKApi.o(i.CSpotter_GetNumWord) for i.CSpotter_GetNumWord
    CSpotterSDKApi.o(i.CSpotter_VerInfo) refers to CSpotterSDKApi.o(.data) for .data
    CSpotterSDKApi.o(.data) refers to CSpotterSDKApi.o(.conststring) for .conststring
    BsrGo.o(i.NINJA_API_10) refers to BsrDon.o(i.BsrBill) for BsrBill
    BsrGo.o(i.NINJA_API_11) refers to BsrJim.o(i.BsrEva) for BsrEva
    BsrGo.o(i.NINJA_API_11) refers to BsrJim.o(i.BsrAsa) for BsrAsa
    BsrGo.o(i.NINJA_API_11) refers to BsrJim.o(i.BsrEli) for BsrEli
    BsrGo.o(i.NINJA_API_11) refers to aeabi_sdivfast.o(.text) for __aeabi_idivmod
    BsrGo.o(i.NINJA_API_11) refers to BsrBen.o(i.BsrBrad) for BsrBrad
    BsrGo.o(i.NINJA_API_11) refers to BsrJim.o(i.BsrAri) for BsrAri
    BsrGo.o(i.NINJA_API_12) refers to BsrDon.o(i.BsrBeau) for BsrBeau
    BsrGo.o(i.NINJA_API_12) refers to BsrGo.o(i.NINJA_API_11) for NINJA_API_11
    BsrGo.o(i.NINJA_API_13) refers to BsrAli.o(i.BsrJose) for BsrJose
    BsrGo.o(i.NINJA_API_13) refers to aeabi_sdivfast.o(.text) for __aeabi_uidivmod
    BsrGo.o(i.NINJA_API_13) refers to BsrDon.o(i.BsrAmos) for BsrAmos
    BsrGo.o(i.NINJA_API_13) refers to BsrKai.o(i.BsrRon) for BsrRon
    BsrGo.o(i.NINJA_API_13) refers to BsrKai.o(i.BsrRey) for BsrRey
    BsrGo.o(i.NINJA_API_13) refers to BsrKai.o(i.BsrTop) for BsrTop
    BsrGo.o(i.NINJA_API_13) refers to BsrGo.o(i.NINJA_API_11) for NINJA_API_11
    BsrGo.o(i.NINJA_API_14) refers to BsrAli.o(i.BsrJose) for BsrJose
    BsrGo.o(i.NINJA_API_14) refers to aeabi_sdivfast.o(.text) for __aeabi_idivmod
    BsrGo.o(i.NINJA_API_14) refers to BsrDon.o(i.BsrAmos) for BsrAmos
    BsrGo.o(i.NINJA_API_14) refers to BsrKai.o(i.BsrRon) for BsrRon
    BsrGo.o(i.NINJA_API_14) refers to BsrKai.o(i.BsrRey) for BsrRey
    BsrGo.o(i.NINJA_API_14) refers to BsrKai.o(i.BsrTop) for BsrTop
    BsrGo.o(i.NINJA_API_15) refers to BsrJim.o(i.BsrDan) for BsrDan
    BsrGo.o(i.NINJA_API_16) refers to BsrJim.o(i.BsrGuy) for BsrGuy
    BsrGo.o(i.NINJA_API_17) refers to BsrJim.o(i.BsrIan) for BsrIan
    BsrGo.o(i.NINJA_API_18) refers to BsrJim.o(i.BsrIvy) for BsrIvy
    BsrGo.o(i.NINJA_API_19) refers to BsrJim.o(i.BsrJan) for BsrJan
    BsrGo.o(i.NINJA_API_2) refers to BsrJim.o(i.BsrAna) for BsrAna
    BsrGo.o(i.NINJA_API_2) refers to BsrKai.o(i.BsrNia) for BsrNia
    BsrGo.o(i.NINJA_API_2) refers to BsrDon.o(i.BsrAmir) for BsrAmir
    BsrGo.o(i.NINJA_API_20) refers to BsrJim.o(i.BsrJoe) for BsrJoe
    BsrGo.o(i.NINJA_API_23) refers to BsrJim.o(i.BsrEli) for BsrEli
    BsrGo.o(i.NINJA_API_24) refers to BsrJim.o(i.BsrJoy) for BsrJoy
    BsrGo.o(i.NINJA_API_26) refers to BsrDon.o(i.BsrAyla) for BsrAyla
    BsrGo.o(i.NINJA_API_27) refers to BsrJim.o(i.BsrKai) for BsrKai
    BsrGo.o(i.NINJA_API_28) refers to BsrJim.o(i.BsrEli) for BsrEli
    BsrGo.o(i.NINJA_API_29) refers to BsrJim.o(i.BsrKia) for BsrKia
    BsrGo.o(i.NINJA_API_3) refers to BsrJim.o(i.BsrAri) for BsrAri
    BsrGo.o(i.NINJA_API_30) refers to BsrGo.o(.data) for .data
    BsrGo.o(i.NINJA_API_31) refers to BsrJim.o(i.BsrMichelle) for BsrMichelle
    BsrGo.o(i.NINJA_API_32) refers to BsrJim.o(i.BsrLea) for BsrLea
    BsrGo.o(i.NINJA_API_33) refers to BsrJim.o(i.BsrLee) for BsrLee
    BsrGo.o(i.NINJA_API_34) refers to BsrJim.o(i.BsrLeo) for BsrLeo
    BsrGo.o(i.NINJA_API_35) refers to BsrJim.o(i.BsrLuz) for BsrLuz
    BsrGo.o(i.NINJA_API_36) refers to BsrJim.o(i.BsrMax) for BsrMax
    BsrGo.o(i.NINJA_API_38) refers to BsrGo.o(i.NINJA_API_75) for NINJA_API_75
    BsrGo.o(i.NINJA_API_39) refers to BsrGo.o(i.NINJA_API_73) for NINJA_API_73
    BsrGo.o(i.NINJA_API_41) refers to BsrJim.o(i.BsrMike) for BsrMike
    BsrGo.o(i.NINJA_API_42) refers to BsrJim.o(i.BsrMilton) for BsrMilton
    BsrGo.o(i.NINJA_API_43) refers to BsrJim.o(i.BsrEli) for BsrEli
    BsrGo.o(i.NINJA_API_44) refers to BsrJim.o(i.BsrMonica) for BsrMonica
    BsrGo.o(i.NINJA_API_45) refers to BsrJim.o(i.BsrMorris) for BsrMorris
    BsrGo.o(i.NINJA_API_46) refers to BsrDon.o(i.BsrAnna) for BsrAnna
    BsrGo.o(i.NINJA_API_47) refers to BsrDon.o(i.BsrBaby) for BsrBaby
    BsrGo.o(i.NINJA_API_47) refers to BsrKai.o(i.BsrTed) for BsrTed
    BsrGo.o(i.NINJA_API_47) refers to BsrKai.o(i.BsrTre) for BsrTre
    BsrGo.o(i.NINJA_API_47) refers to BsrKai.o(i.BsrTia) for BsrTia
    BsrGo.o(i.NINJA_API_48) refers to BsrDon.o(i.BsrBaby) for BsrBaby
    BsrGo.o(i.NINJA_API_48) refers to BsrKai.o(i.BsrTed) for BsrTed
    BsrGo.o(i.NINJA_API_48) refers to BsrKai.o(i.BsrTom) for BsrTom
    BsrGo.o(i.NINJA_API_50) refers to BsrJim.o(i.BsrMickey) for BsrMickey
    BsrGo.o(i.NINJA_API_51) refers to BsrJim.o(i.BsrLei) for BsrLei
    BsrGo.o(i.NINJA_API_52) refers to BsrKai.o(i.BsrNoe) for BsrNoe
    BsrGo.o(i.NINJA_API_55) refers to aeabi_sdivfast.o(.text) for __aeabi_idivmod
    BsrGo.o(i.NINJA_API_59) refers to BsrJim.o(i.BsrLeonard) for BsrLeonard
    BsrGo.o(i.NINJA_API_62) refers to BsrJim.o(i.BsrEle) for BsrEle
    BsrGo.o(i.NINJA_API_63) refers to BsrJim.o(i.BsrEve) for BsrEve
    BsrGo.o(i.NINJA_API_64) refers to BsrGo.o(.constdata) for .constdata
    BsrGo.o(i.NINJA_API_65) refers to BsrJim.o(i.BsrJoyce) for BsrJoyce
    BsrGo.o(i.NINJA_API_66) refers to BsrJim.o(i.BsrEla) for BsrEla
    BsrGo.o(i.NINJA_API_67) refers to BsrJim.o(i.BsrJon) for BsrJon
    BsrGo.o(i.NINJA_API_68) refers to BsrJim.o(i.BsrJone) for BsrJone
    BsrGo.o(i.NINJA_API_69) refers to BsrJim.o(i.BsrJom) for BsrJom
    BsrGo.o(i.NINJA_API_70) refers to BsrJim.o(i.BsrJome) for BsrJome
    BsrGo.o(i.NINJA_API_71) refers to BsrJim.o(i.BsrJoea) for BsrJoea
    BsrGo.o(i.NINJA_API_72) refers to BsrGo.o(i.NINJA_API_73) for NINJA_API_73
    BsrGo.o(i.NINJA_API_73) refers to BsrGo.o(i.NINJA_API_75) for NINJA_API_75
    BsrGo.o(i.NINJA_API_73) refers to BsrAli.o(i.BsrJohn) for BsrJohn
    BsrGo.o(i.NINJA_API_73) refers to BsrJoe.o(i.BsrAbby) for BsrAbby
    BsrGo.o(i.NINJA_API_73) refers to BsrDon.o(i.BsrAlma) for BsrAlma
    BsrGo.o(i.NINJA_API_73) refers to BsrDon.o(i.BsrAnna) for BsrAnna
    BsrGo.o(i.NINJA_API_73) refers to BsrKai.o(i.BsrMya) for BsrMya
    BsrGo.o(i.NINJA_API_73) refers to BsrKai.o(i.BsrRay) for BsrRay
    BsrGo.o(i.NINJA_API_73) refers to BsrKai.o(i.BsrRex) for BsrRex
    BsrGo.o(i.NINJA_API_73) refers to BsrJim.o(i.BsrMichael) for BsrMichael
    BsrGo.o(i.NINJA_API_73) refers to BsrJim.o(i.BsrJoyci) for BsrJoyci
    BsrGo.o(i.NINJA_API_73) refers to BsrJim.o(i.BsrAna) for BsrAna
    BsrGo.o(i.NINJA_API_73) refers to BsrKai.o(i.BsrNia) for BsrNia
    BsrGo.o(i.NINJA_API_73) refers to BsrDon.o(i.BsrAmir) for BsrAmir
    BsrGo.o(i.NINJA_API_73) refers to BsrJim.o(i.BsrDan) for BsrDan
    BsrGo.o(i.NINJA_API_73) refers to BsrJim.o(i.BsrGuy) for BsrGuy
    BsrGo.o(i.NINJA_API_73) refers to BsrJim.o(i.BsrMichelle) for BsrMichelle
    BsrGo.o(i.NINJA_API_73) refers to BsrJim.o(i.BsrIvy) for BsrIvy
    BsrGo.o(i.NINJA_API_73) refers to BsrDon.o(i.BsrBaby) for BsrBaby
    BsrGo.o(i.NINJA_API_73) refers to BsrKai.o(i.BsrTed) for BsrTed
    BsrGo.o(i.NINJA_API_73) refers to BsrKai.o(i.BsrTom) for BsrTom
    BsrGo.o(i.NINJA_API_73) refers to BsrJim.o(i.BsrAri) for BsrAri
    BsrGo.o(i.NINJA_API_73) refers to BsrGo.o(.constdata) for .constdata
    BsrGo.o(i.NINJA_API_74) refers to BsrGo.o(i.NINJA_API_75) for NINJA_API_75
    BsrGo.o(i.NINJA_API_75) refers to BsrDon.o(i.BsrAnne) for BsrAnne
    BsrGo.o(i.NINJA_API_75) refers to BsrKai.o(i.BsrRoy) for BsrRoy
    BsrGo.o(i.NINJA_API_75) refers to BsrJim.o(i.BsrAvea) for BsrAvea
    BsrGo.o(i.NINJA_API_75) refers to BsrDon.o(i.BsrAnnie) for BsrAnnie
    BsrGo.o(i.NINJA_API_75) refers to BsrGo.o(.constdata) for .constdata
    BsrGo.o(i.NINJA_API_8) refers to BsrGo.o(i.NINJA_API_75) for NINJA_API_75
    BsrGo.o(i.NINJA_API_9) refers to BsrGo.o(i.NINJA_API_73) for NINJA_API_73
    BsrGo.o(.data) refers to BsrGo.o(.conststring) for .conststring
    BsrBen.o(i.BsrBrad) refers to BsrBen.o(.constdata) for .constdata
    BsrDon.o(i.BsrAlma) refers to BsrJoe.o(i.BsrAbel) for BsrAbel
    BsrDon.o(i.BsrAlma) refers to BsrAli.o(i.BsrJohn) for BsrJohn
    BsrDon.o(i.BsrAlma) refers to BsrJoe.o(i.BsrZoe) for BsrZoe
    BsrDon.o(i.BsrAlma) refers to BsrEli.o(i.BsrErica) for BsrErica
    BsrDon.o(i.BsrAmir) refers to BsrJoe.o(i.BsrAdam) for BsrAdam
    BsrDon.o(i.BsrAmos) refers to BsrJoe.o(i.BsrAbel) for BsrAbel
    BsrDon.o(i.BsrAmos) refers to BsrEva.o(i.BsrEden) for BsrEden
    BsrDon.o(i.BsrAmos) refers to BsrEva.o(i.BsrElla) for BsrElla
    BsrDon.o(i.BsrAmos) refers to BsrEva.o(i.BsrElsa) for BsrElsa
    BsrDon.o(i.BsrAmos) refers to BsrAli.o(i.BsrJose) for BsrJose
    BsrDon.o(i.BsrAmos) refers to BsrJoe.o(i.BsrAdam) for BsrAdam
    BsrDon.o(i.BsrAnna) refers to BsrEli.o(i.BsrErica) for BsrErica
    BsrDon.o(i.BsrAnne) refers to BsrJoe.o(i.BsrZoe) for BsrZoe
    BsrDon.o(i.BsrAnnie) refers to BsrJoe.o(i.BsrZoe) for BsrZoe
    BsrJim.o(i.BsrAna) refers to BsrJoe.o(i.BsrAdam) for BsrAdam
    BsrJim.o(i.BsrAsa) refers to BsrJay.o(i.BsrCadea) for BsrCadea
    BsrJim.o(i.BsrAsa) refers to BsrJay.o(i.BsrCade) for BsrCade
    BsrJim.o(i.BsrAsa) refers to BsrJay.o(i.BsrCale) for BsrCale
    BsrJim.o(i.BsrAsa) refers to BsrJay.o(i.BsrCara) for BsrCara
    BsrJim.o(i.BsrAsa) refers to BsrJay.o(i.BsrCarae) for BsrCarae
    BsrJim.o(i.BsrAsa) refers to BsrJay.o(i.BsrChada) for BsrChada
    BsrJim.o(i.BsrAsa) refers to BsrJay.o(i.BsrChaze) for BsrChaze
    BsrJim.o(i.BsrAsa) refers to BsrJay.o(i.BsrChad) for BsrChad
    BsrJim.o(i.BsrAsa) refers to BsrJay.o(i.BsrChaz) for BsrChaz
    BsrJim.o(i.BsrAsa) refers to BsrJay.o(i.BsrChaza) for BsrChaza
    BsrJim.o(i.BsrAsa) refers to BsrJay.o(i.BsrChazi) for BsrChazi
    BsrJim.o(i.BsrAsa) refers to BsrJim.o(i.BsrAri) for BsrAri
    BsrJim.o(i.BsrAsa) refers to BsrJay.o(i.BsrClay) for BsrClay
    BsrJim.o(i.BsrAve) refers to BsrJim.o(i.BsrAvea) for BsrAvea
    BsrJim.o(i.BsrAvea) refers to BsrJim.o(i.BsrBen) for BsrBen
    BsrJim.o(i.BsrAvea) refers to BsrJoe.o(i.BsrZoe) for BsrZoe
    BsrJim.o(i.BsrBen) refers to BsrJim.o(i.BsrMaxi) for BsrMaxi
    BsrJim.o(i.BsrBeni) refers to BsrJoe.o(i.BsrZoe) for BsrZoe
    BsrJim.o(i.BsrIan) refers to BsrJim.o(i.BsrMike) for BsrMike
    BsrJim.o(i.BsrIvy) refers to BsrJim.o(i.BsrMike) for BsrMike
    BsrJim.o(i.BsrJoyci) refers to BsrJoe.o(i.BsrAdam) for BsrAdam
    BsrJim.o(i.BsrJoyci) refers to BsrJoe.o(i.BsrAbel) for BsrAbel
    BsrJim.o(i.BsrLeo) refers to BsrJim.o(i.BsrLei) for BsrLei
    BsrJim.o(i.BsrLeonard) refers to BsrJim.o(i.BsrLei) for BsrLei
    BsrJim.o(i.BsrMax) refers to BsrJim.o(i.BsrLei) for BsrLei
    BsrJim.o(i.BsrMaxi) refers to BsrJim.o(i.BsrLei) for BsrLei
    BsrJim.o(i.BsrMichael) refers to BsrJim.o(i.BsrBen) for BsrBen
    BsrJim.o(i.BsrMichael) refers to BsrJoe.o(i.BsrAbel) for BsrAbel
    BsrJim.o(i.BsrMichael) refers to BsrAli.o(i.BsrJohn) for BsrJohn
    BsrJim.o(i.BsrMichael) refers to BsrJoe.o(i.BsrAdam) for BsrAdam
    BsrJim.o(i.BsrMike) refers to BsrJim.o(i.BsrLei) for BsrLei
    BsrJim.o(i.BsrMilton) refers to BsrJim.o(i.BsrMike) for BsrMike
    BsrJoe.o(i.BsrAldo) refers to BsrJoe.o(i.BsrAbel) for BsrAbel
    BsrJoe.o(i.BsrAldo) refers to BsrAli.o(i.BsrJohn) for BsrJohn
    BsrJoe.o(i.BsrAlec) refers to BsrJoe.o(i.BsrAbel) for BsrAbel
    BsrJoe.o(i.BsrAlec) refers to BsrAli.o(i.BsrJose) for BsrJose
    BsrJoe.o(i.BsrAlec) refers to BsrJoe.o(i.BsrAdam) for BsrAdam
    BsrKai.o(i.BsrJoan) refers to aeabi_sdivfast.o(.text) for __aeabi_idivmod
    BsrKai.o(i.BsrMia) refers to BsrJoy.o(i.BsrCoty) for BsrCoty
    BsrKai.o(i.BsrMya) refers to BsrJoe.o(i.BsrAbel) for BsrAbel
    BsrKai.o(i.BsrMya) refers to BsrAli.o(i.BsrJohn) for BsrJohn
    BsrKai.o(i.BsrMya) refers to BsrJoy.o(i.BsrCoty) for BsrCoty
    BsrKai.o(i.BsrMya) refers to BsrJoe.o(i.BsrAdam) for BsrAdam
    BsrKai.o(i.BsrNia) refers to BsrJoy.o(i.BsrCoty) for BsrCoty
    BsrKai.o(i.BsrNia) refers to BsrJoe.o(i.BsrAdam) for BsrAdam
    BsrKai.o(i.BsrRay) refers to BsrJoy.o(i.BsrCoty) for BsrCoty
    BsrKai.o(i.BsrRay) refers to BsrJoy.o(i.BsrCory) for BsrCory
    BsrKai.o(i.BsrRay) refers to BsrJoy.o(i.BsrDane) for BsrDane
    BsrKai.o(i.BsrRay) refers to BsrJoy.o(i.BsrDawn) for BsrDawn
    BsrKai.o(i.BsrRay) refers to BsrJoy.o(i.BsrDeon) for BsrDeon
    BsrKai.o(i.BsrRay) refers to BsrKai.o(i.BsrTom) for BsrTom
    BsrKai.o(i.BsrRay) refers to BsrJoy.o(i.BsrDina) for BsrDina
    BsrKai.o(i.BsrRon) refers to BsrJoe.o(i.BsrAbel) for BsrAbel
    BsrKai.o(i.BsrRon) refers to BsrAli.o(i.BsrJose) for BsrJose
    BsrKai.o(i.BsrRon) refers to BsrJoy.o(i.BsrDeja) for BsrDeja
    BsrKai.o(i.BsrRon) refers to BsrJoy.o(i.BsrDemi) for BsrDemi
    BsrKai.o(i.BsrRon) refers to BsrJoe.o(i.BsrAdam) for BsrAdam
    BsrKai.o(i.BsrRon) refers to BsrKai.o(i.BsrJoan) for BsrJoan
    BsrKai.o(i.BsrRon) refers to aeabi_sdivfast.o(.text) for __aeabi_idivmod
    BsrKai.o(i.BsrRoy) refers to BsrJoy.o(i.BsrDion) for BsrDion
    BsrKai.o(i.BsrRoy) refers to BsrJoe.o(i.BsrZoe) for BsrZoe
    BsrKai.o(i.BsrTre) refers to BsrKai.o(i.BsrJoan) for BsrJoan
    BsrEli.o(i.BsrEmma) refers to aeabi_sdivfast.o(.text) for __aeabi_idivmod
    BsrEli.o(i.BsrErica) refers to aeabi_sdivfast.o(.text) for __aeabi_idivmod
    BsrEli.o(i.BsrErica) refers to BsrEli.o(.constdata) for .constdata
    BsrEli.o(i.BsrErik) refers to BsrBen.o(i.BsrBrad) for BsrBrad
    BsrEli.o(i.BsrErin) refers to aeabi_sdivfast.o(.text) for __aeabi_idivmod
    BsrEva.o(i.BsrEden) refers to BsrGuy.o(i.BsrIrma) for BsrIrma
    BsrEva.o(i.BsrEden) refers to BsrGuy.o(i.BsrIris) for BsrIris
    BsrEva.o(i.BsrEden) refers to BsrGuy.o(i.BsrHugo) for BsrHugo
    BsrEva.o(i.BsrEden) refers to BsrGuy.o(i.BsrIsai) for BsrIsai
    BsrEva.o(i.BsrEden) refers to BsrAli.o(i.BsrJohn) for BsrJohn
    BsrEva.o(i.BsrEden) refers to BsrAnn.o(i.BsrGreg) for BsrGreg
    BsrEva.o(i.BsrEden) refers to BsrEli.o(i.BsrEric) for BsrEric
    BsrEva.o(i.BsrEden) refers to BsrEli.o(i.BsrErin) for BsrErin
    BsrEva.o(i.BsrEden) refers to BsrEli.o(i.BsrEvan) for BsrEvan
    BsrEva.o(i.BsrEden) refers to BsrEli.o(i.BsrEmma) for BsrEmma
    BsrEva.o(i.BsrEden) refers to BsrEli.o(i.BsrErik) for BsrErik
    BsrEva.o(i.BsrEden) refers to BsrAna.o(i.BsrGary) for BsrGary
    BsrEva.o(i.BsrElla) refers to BsrEva.o(i.BsrJuanitez) for BsrJuanitez
    BsrEva.o(i.BsrElla) refers to aeabi_sdivfast.o(.text) for __aeabi_idivmod
    BsrEva.o(i.BsrElsa) refers to BsrEva.o(i.BsrJuanitez) for BsrJuanitez
    BsrEva.o(i.BsrElsa) refers to aeabi_sdivfast.o(.text) for __aeabi_idivmod
    BsrJay.o(i.BsrCara) refers to BsrJoe.o(i.BsrAbel) for BsrAbel
    BsrJay.o(i.BsrCara) refers to BsrAli.o(i.BsrJohn) for BsrJohn
    BsrJay.o(i.BsrCara) refers to BsrJay.o(i.BsrBret) for BsrBret
    BsrJay.o(i.BsrCara) refers to BsrJoe.o(i.BsrAdam) for BsrAdam
    BsrJay.o(i.BsrCarae) refers to BsrJay.o(i.BsrBret) for BsrBret
    BsrJay.o(i.BsrChaz) refers to BsrJoe.o(i.BsrAbel) for BsrAbel
    BsrJay.o(i.BsrChaz) refers to BsrJoe.o(i.BsrAdam) for BsrAdam
    BsrJay.o(i.BsrChaza) refers to aeabi_sdivfast.o(.text) for __aeabi_idivmod
    BsrJay.o(i.BsrChaze) refers to BsrJoe.o(i.BsrAbel) for BsrAbel
    BsrJay.o(i.BsrChaze) refers to BsrJoe.o(i.BsrAdam) for BsrAdam
    BsrJay.o(i.BsrClay) refers to aeabi_sdivfast.o(.text) for __aeabi_idivmod
    BsrJay.o(i.BsrClay) refers to BsrJay.o(i.BsrJeni) for BsrJeni
    BsrJay.o(i.BsrJeni) refers to aeabi_sdivfast.o(.text) for __aeabi_idivmod
    BsrJoy.o(i.BsrCory) refers to BsrJoe.o(i.BsrAbel) for BsrAbel
    BsrJoy.o(i.BsrCory) refers to BsrAli.o(i.BsrJohn) for BsrJohn
    BsrJoy.o(i.BsrCory) refers to BsrAli.o(i.BsrJosh) for BsrJosh
    BsrJoy.o(i.BsrCory) refers to BsrJoe.o(i.BsrAdam) for BsrAdam
    BsrJoy.o(i.BsrCory) refers to BsrJoy.o(.constdata) for .constdata
    BsrJoy.o(i.BsrCoty) refers to BsrJoe.o(i.BsrAdam) for BsrAdam
    BsrJoy.o(i.BsrDeon) refers to BsrJoy.o(i.BsrJamii) for BsrJamii
    BsrJoy.o(i.BsrDina) refers to aeabi_sdivfast.o(.text) for __aeabi_uidivmod
    BsrJoy.o(i.BsrDion) refers to BsrAli.o(i.BsrJosh) for BsrJosh
    BsrJoy.o(i.BsrDion) refers to BsrJoe.o(i.BsrZoe) for BsrZoe
    BsrJoy.o(i.BsrDion) refers to BsrJoy.o(.constdata) for .constdata
    BsrJoy.o(i.BsrJamii) refers to aeabi_sdivfast.o(.text) for __aeabi_uidivmod
    BsrAna.o(i.BsrGary) refers to BsrAna.o(.constdata) for .constdata
    BsrAna.o(i.BsrGene) refers to aeabi_sdivfast.o(.text) for __aeabi_idivmod
    BsrAna.o(i.BsrGene) refers to BsrAna.o(.constdata) for .constdata
    BsrAnn.o(i.BsrGreg) refers to aeabi_sdivfast.o(.text) for __aeabi_idivmod
    BsrAnn.o(i.BsrGreg) refers to BsrAnn.o(.constdata) for .constdata
    BsrAnn.o(i.BsrHali) refers to aeabi_sdivfast.o(.text) for __aeabi_idivmod
    BsrAnn.o(i.BsrHali) refers to llmul.o(.text) for __aeabi_lmul
    BsrAnn.o(i.BsrHali) refers to BsrAnn.o(.constdata) for .constdata
    BsrAnn.o(i.BsrHans) refers to BsrAnn.o(i.BsrGreg) for BsrGreg
    BsrAnn.o(i.BsrHope) refers to BsrAnn.o(i.BsrHali) for BsrHali
    BsrGuy.o(i.BsrHugo) refers to BsrGuy.o(.constdata) for .constdata
    __2printf.o(.text) refers to _printf_char_file.o(.text) for _printf_char_file
    __2printf.o(.text) refers to retarget.o(.data) for __stdout
    noretval__2printf.o(.text) refers to _printf_char_file.o(.text) for _printf_char_file
    noretval__2printf.o(.text) refers to retarget.o(.data) for __stdout
    __printf.o(.text) refers to _printf_percent.o(.ARM.Collect$$_printf_percent$$00000000) for _printf_percent
    _printf_hex_ll.o(.text) refers to _printf_intcommon.o(.text) for _printf_int_common
    _printf_hex_ll.o(.text) refers to _printf_hex_ll.o(.constdata) for .constdata
    _printf_hex_int.o(.text) refers to _printf_intcommon.o(.text) for _printf_int_common
    _printf_hex_int.o(.text) refers to _printf_hex_int.o(.constdata) for .constdata
    _printf_hex_int_ll.o(.text) refers to _printf_intcommon.o(.text) for _printf_int_common
    _printf_hex_int_ll.o(.text) refers to _printf_hex_int_ll.o(.constdata) for .constdata
    _printf_hex_ptr.o(.text) refers to _printf_intcommon.o(.text) for _printf_int_common
    _printf_hex_ptr.o(.text) refers to _printf_hex_ptr.o(.constdata) for .constdata
    _printf_hex_int_ptr.o(.text) refers to _printf_intcommon.o(.text) for _printf_int_common
    _printf_hex_int_ptr.o(.text) refers to _printf_hex_int_ptr.o(.constdata) for .constdata
    _printf_hex_ll_ptr.o(.text) refers to _printf_intcommon.o(.text) for _printf_int_common
    _printf_hex_ll_ptr.o(.text) refers to _printf_hex_ll_ptr.o(.constdata) for .constdata
    _printf_hex_int_ll_ptr.o(.text) refers to _printf_intcommon.o(.text) for _printf_int_common
    _printf_hex_int_ll_ptr.o(.text) refers to _printf_hex_int_ll_ptr.o(.constdata) for .constdata
    __printf_flags.o(.text) refers to _printf_percent.o(.ARM.Collect$$_printf_percent$$00000000) for _printf_percent
    __printf_flags.o(.text) refers to __printf_flags.o(.constdata) for .constdata
    __printf_ss.o(.text) refers to _printf_percent.o(.ARM.Collect$$_printf_percent$$00000000) for _printf_percent
    __printf_flags_ss.o(.text) refers to _printf_percent.o(.ARM.Collect$$_printf_percent$$00000000) for _printf_percent
    __printf_flags_ss.o(.text) refers to __printf_flags_ss.o(.constdata) for .constdata
    __printf_wp.o(.text) refers to __printf_wp.o(i._is_digit) for _is_digit
    __printf_wp.o(.text) refers to _printf_percent.o(.ARM.Collect$$_printf_percent$$00000000) for _printf_percent
    __printf_flags_wp.o(.text) refers to __printf_wp.o(i._is_digit) for _is_digit
    __printf_flags_wp.o(.text) refers to _printf_percent.o(.ARM.Collect$$_printf_percent$$00000000) for _printf_percent
    __printf_flags_wp.o(.text) refers to __printf_flags_wp.o(.constdata) for .constdata
    __printf_ss_wp.o(.text) refers to __printf_wp.o(i._is_digit) for _is_digit
    __printf_ss_wp.o(.text) refers to _printf_percent.o(.ARM.Collect$$_printf_percent$$00000000) for _printf_percent
    __printf_flags_ss_wp.o(.text) refers to __printf_wp.o(i._is_digit) for _is_digit
    __printf_flags_ss_wp.o(.text) refers to _printf_percent.o(.ARM.Collect$$_printf_percent$$00000000) for _printf_percent
    __printf_flags_ss_wp.o(.text) refers to __printf_flags_ss_wp.o(.constdata) for .constdata
    _printf_x.o(.ARM.Collect$$_printf_percent$$0000000C) refers (Weak) to _printf_hex_int.o(.text) for _printf_int_hex
    _printf_percent.o(.ARM.Collect$$_printf_percent$$00000000) refers (Special) to _printf_percent_end.o(.ARM.Collect$$_printf_percent$$00000017) for _printf_percent_end
    rt_memcpy.o(.text) refers to rt_memcpy.o(.emb_text) for __aeabi_memcpy4
    __main.o(!!!main) refers to __rtentry.o(.ARM.Collect$$rtentry$$00000000) for __rt_entry
    dfixui.o(.text) refers (Special) to usenofp.o(x$fpl$usenofp) for __I$use$fp
    dflti.o(.text) refers (Special) to usenofp.o(x$fpl$usenofp) for __I$use$fp
    dmul.o(.text) refers (Special) to usenofp.o(x$fpl$usenofp) for __I$use$fp
    __rtentry.o(.ARM.Collect$$rtentry$$00000000) refers (Special) to __rtentry2.o(.ARM.Collect$$rtentry$$0000000A) for __rt_entry_li
    __rtentry.o(.ARM.Collect$$rtentry$$00000000) refers (Special) to __rtentry2.o(.ARM.Collect$$rtentry$$0000000D) for __rt_entry_main
    __rtentry.o(.ARM.Collect$$rtentry$$00000000) refers (Special) to __rtentry2.o(.ARM.Collect$$rtentry$$0000000C) for __rt_entry_postli_1
    __rtentry.o(.ARM.Collect$$rtentry$$00000000) refers (Special) to __rtentry2.o(.ARM.Collect$$rtentry$$00000009) for __rt_entry_postsh_1
    __rtentry.o(.ARM.Collect$$rtentry$$00000000) refers (Special) to __rtentry2.o(.ARM.Collect$$rtentry$$00000002) for __rt_entry_presh_1
    __rtentry.o(.ARM.Collect$$rtentry$$00000000) refers (Special) to __rtentry4.o(.ARM.Collect$$rtentry$$00000004) for __rt_entry_sh
    aeabi_idiv0_sigfpe.o(.text) refers to rt_div0.o(.text) for __rt_div0
    _printf_char_file.o(.text) refers to _printf_char_common.o(.text) for _printf_char_common
    _printf_char_file.o(.text) refers to retarget.o(i.ferror) for ferror
    _printf_char_file.o(.text) refers to retarget.o(i.fputc) for fputc
    __rtentry2.o(.ARM.Collect$$rtentry$$00000008) refers to boardinit2.o(.text) for _platform_post_stackheap_init
    __rtentry2.o(.ARM.Collect$$rtentry$$0000000A) refers to libinit.o(.ARM.Collect$$libinit$$00000000) for __rt_lib_init
    __rtentry2.o(.ARM.Collect$$rtentry$$0000000B) refers to boardinit3.o(.text) for _platform_post_lib_init
    __rtentry2.o(.ARM.Collect$$rtentry$$0000000D) refers to main.o(i.main) for main
    __rtentry2.o(.ARM.Collect$$rtentry$$0000000D) refers to exit.o(.text) for exit
    __rtentry2.o(.ARM.exidx) refers to __rtentry2.o(.ARM.Collect$$rtentry$$00000001) for .ARM.Collect$$rtentry$$00000001
    __rtentry2.o(.ARM.exidx) refers to __rtentry2.o(.ARM.Collect$$rtentry$$00000008) for .ARM.Collect$$rtentry$$00000008
    __rtentry2.o(.ARM.exidx) refers to __rtentry2.o(.ARM.Collect$$rtentry$$0000000A) for .ARM.Collect$$rtentry$$0000000A
    __rtentry2.o(.ARM.exidx) refers to __rtentry2.o(.ARM.Collect$$rtentry$$0000000B) for .ARM.Collect$$rtentry$$0000000B
    __rtentry2.o(.ARM.exidx) refers to __rtentry2.o(.ARM.Collect$$rtentry$$0000000D) for .ARM.Collect$$rtentry$$0000000D
    __rtentry4.o(.ARM.Collect$$rtentry$$00000004) refers to sys_stackheap_outer.o(.text) for __user_setup_stackheap
    __rtentry4.o(.ARM.exidx) refers to __rtentry4.o(.ARM.Collect$$rtentry$$00000004) for .ARM.Collect$$rtentry$$00000004
    rt_div0.o(.text) refers to defsig_fpe_outer.o(.text) for __rt_SIGFPE
    _printf_char_common.o(.text) refers to __printf_wp.o(.text) for __printf
    sys_stackheap_outer.o(.text) refers to libspace.o(.text) for __user_perproc_libspace
    sys_stackheap_outer.o(.text) refers to startup_isd9100.o(.text) for __user_initial_stackheap
    sys_stackheap_outer.o(__vectab_stack_and_reset_area) refers to tempstk.o(.text) for __temporary_stack_top
    sys_stackheap_outer.o(__vectab_stack_and_reset_area) refers to __main.o(!!!main) for __main
    exit.o(.text) refers to rtexit.o(.ARM.Collect$$rtexit$$00000000) for __rt_exit
    defsig_fpe_outer.o(.text) refers to defsig_fpe_inner.o(.text) for __rt_SIGFPE_inner
    defsig_fpe_outer.o(.text) refers to defsig_exit.o(.text) for __sig_exit
    defsig_fpe_formal.o(.text) refers to rt_raise.o(.text) for __rt_raise
    libinit.o(.ARM.Collect$$libinit$$00000000) refers (Special) to libinit2.o(.ARM.Collect$$libinit$$0000002E) for __rt_lib_init_alloca_1
    libinit.o(.ARM.Collect$$libinit$$00000000) refers (Special) to libinit2.o(.ARM.Collect$$libinit$$0000002C) for __rt_lib_init_argv_1
    libinit.o(.ARM.Collect$$libinit$$00000000) refers (Special) to libinit2.o(.ARM.Collect$$libinit$$0000001B) for __rt_lib_init_atexit_1
    libinit.o(.ARM.Collect$$libinit$$00000000) refers (Special) to libinit2.o(.ARM.Collect$$libinit$$00000021) for __rt_lib_init_clock_1
    libinit.o(.ARM.Collect$$libinit$$00000000) refers (Special) to libinit2.o(.ARM.Collect$$libinit$$00000032) for __rt_lib_init_cpp_1
    libinit.o(.ARM.Collect$$libinit$$00000000) refers (Special) to libinit2.o(.ARM.Collect$$libinit$$00000030) for __rt_lib_init_exceptions_1
    libinit.o(.ARM.Collect$$libinit$$00000000) refers (Special) to libinit2.o(.ARM.Collect$$libinit$$00000002) for __rt_lib_init_fp_1
    libinit.o(.ARM.Collect$$libinit$$00000000) refers (Special) to libinit2.o(.ARM.Collect$$libinit$$0000001F) for __rt_lib_init_fp_trap_1
    libinit.o(.ARM.Collect$$libinit$$00000000) refers (Special) to libinit2.o(.ARM.Collect$$libinit$$00000023) for __rt_lib_init_getenv_1
    libinit.o(.ARM.Collect$$libinit$$00000000) refers (Special) to libinit2.o(.ARM.Collect$$libinit$$0000000A) for __rt_lib_init_heap_1
    libinit.o(.ARM.Collect$$libinit$$00000000) refers (Special) to libinit2.o(.ARM.Collect$$libinit$$00000011) for __rt_lib_init_lc_collate_1
    libinit.o(.ARM.Collect$$libinit$$00000000) refers (Special) to libinit2.o(.ARM.Collect$$libinit$$00000013) for __rt_lib_init_lc_ctype_1
    libinit.o(.ARM.Collect$$libinit$$00000000) refers (Special) to libinit2.o(.ARM.Collect$$libinit$$00000015) for __rt_lib_init_lc_monetary_1
    libinit.o(.ARM.Collect$$libinit$$00000000) refers (Special) to libinit2.o(.ARM.Collect$$libinit$$00000017) for __rt_lib_init_lc_numeric_1
    libinit.o(.ARM.Collect$$libinit$$00000000) refers (Special) to libinit2.o(.ARM.Collect$$libinit$$00000019) for __rt_lib_init_lc_time_1
    libinit.o(.ARM.Collect$$libinit$$00000000) refers (Special) to libinit2.o(.ARM.Collect$$libinit$$00000004) for __rt_lib_init_preinit_1
    libinit.o(.ARM.Collect$$libinit$$00000000) refers (Special) to libinit2.o(.ARM.Collect$$libinit$$0000000E) for __rt_lib_init_rand_1
    libinit.o(.ARM.Collect$$libinit$$00000000) refers (Special) to libinit2.o(.ARM.Collect$$libinit$$00000033) for __rt_lib_init_return
    libinit.o(.ARM.Collect$$libinit$$00000000) refers (Special) to libinit2.o(.ARM.Collect$$libinit$$0000001D) for __rt_lib_init_signal_1
    libinit.o(.ARM.Collect$$libinit$$00000000) refers (Special) to libinit2.o(.ARM.Collect$$libinit$$00000025) for __rt_lib_init_stdio_1
    libinit.o(.ARM.Collect$$libinit$$00000000) refers (Special) to libinit2.o(.ARM.Collect$$libinit$$0000000C) for __rt_lib_init_user_alloc_1
    libspace.o(.text) refers to libspace.o(.bss) for __libspace_start
    rtexit.o(.ARM.Collect$$rtexit$$00000000) refers (Special) to rtexit2.o(.ARM.Collect$$rtexit$$00000004) for __rt_exit_exit
    rtexit.o(.ARM.Collect$$rtexit$$00000000) refers (Special) to rtexit2.o(.ARM.Collect$$rtexit$$00000003) for __rt_exit_ls
    rtexit.o(.ARM.Collect$$rtexit$$00000000) refers (Special) to rtexit2.o(.ARM.Collect$$rtexit$$00000002) for __rt_exit_prels_1
    rtexit.o(.ARM.exidx) refers (Special) to rtexit2.o(.ARM.Collect$$rtexit$$00000004) for __rt_exit_exit
    rtexit.o(.ARM.exidx) refers (Special) to rtexit2.o(.ARM.Collect$$rtexit$$00000003) for __rt_exit_ls
    rtexit.o(.ARM.exidx) refers (Special) to rtexit2.o(.ARM.Collect$$rtexit$$00000002) for __rt_exit_prels_1
    rtexit.o(.ARM.exidx) refers to rtexit.o(.ARM.Collect$$rtexit$$00000000) for .ARM.Collect$$rtexit$$00000000
    rt_raise.o(.text) refers to __raise.o(.text) for __raise
    rt_raise.o(.text) refers to sys_exit.o(.text) for _sys_exit
    defsig_exit.o(.text) refers to sys_exit.o(.text) for _sys_exit
    defsig_fpe_inner.o(.text) refers to defsig_general.o(.text) for __default_signal_display
    libinit2.o(.ARM.Collect$$libinit$$00000010) refers to libinit2.o(.ARM.Collect$$libinit$$0000000F) for .ARM.Collect$$libinit$$0000000F
    libinit2.o(.ARM.Collect$$libinit$$00000012) refers to libinit2.o(.ARM.Collect$$libinit$$0000000F) for .ARM.Collect$$libinit$$0000000F
    libinit2.o(.ARM.Collect$$libinit$$00000014) refers to libinit2.o(.ARM.Collect$$libinit$$0000000F) for .ARM.Collect$$libinit$$0000000F
    libinit2.o(.ARM.Collect$$libinit$$00000016) refers to libinit2.o(.ARM.Collect$$libinit$$0000000F) for .ARM.Collect$$libinit$$0000000F
    libinit2.o(.ARM.Collect$$libinit$$00000018) refers to libinit2.o(.ARM.Collect$$libinit$$0000000F) for .ARM.Collect$$libinit$$0000000F
    libinit2.o(.ARM.Collect$$libinit$$00000026) refers to argv_veneer.o(.text) for __ARM_argv_veneer
    libinit2.o(.ARM.Collect$$libinit$$00000027) refers to argv_veneer.o(.text) for __ARM_argv_veneer
    sys_exit.o(.text) refers (Special) to use_no_semi.o(.text) for __I$use$semihosting
    sys_exit.o(.text) refers (Special) to indicate_semi.o(.text) for __semihosting_library_function
    rtexit2.o(.ARM.Collect$$rtexit$$00000003) refers to libshutdown.o(.ARM.Collect$$libshutdown$$00000000) for __rt_lib_shutdown
    rtexit2.o(.ARM.Collect$$rtexit$$00000004) refers to sys_exit.o(.text) for _sys_exit
    rtexit2.o(.ARM.exidx) refers to rtexit2.o(.ARM.Collect$$rtexit$$00000001) for .ARM.Collect$$rtexit$$00000001
    rtexit2.o(.ARM.exidx) refers to rtexit2.o(.ARM.Collect$$rtexit$$00000003) for .ARM.Collect$$rtexit$$00000003
    rtexit2.o(.ARM.exidx) refers to rtexit2.o(.ARM.Collect$$rtexit$$00000004) for .ARM.Collect$$rtexit$$00000004
    __raise.o(.text) refers to defsig.o(CL$$defsig) for __default_signal_handler
    defsig_general.o(.text) refers to retarget.o(i._ttywrch) for _ttywrch
    defsig.o(CL$$defsig) refers to defsig_fpe_inner.o(.text) for __rt_SIGFPE_inner
    defsig.o(CL$$defsig) refers to defsig_rtmem_inner.o(.text) for __rt_SIGRTMEM_inner
    _get_argv_nomalloc.o(.text) refers (Special) to hrguard.o(.text) for __heap_region$guard
    _get_argv_nomalloc.o(.text) refers to defsig_rtmem_outer.o(.text) for __rt_SIGRTMEM
    _get_argv_nomalloc.o(.text) refers to sys_command.o(.text) for _sys_command_string
    libshutdown.o(.ARM.Collect$$libshutdown$$00000000) refers (Special) to libshutdown2.o(.ARM.Collect$$libshutdown$$00000002) for __rt_lib_shutdown_cpp_1
    libshutdown.o(.ARM.Collect$$libshutdown$$00000000) refers (Special) to libshutdown2.o(.ARM.Collect$$libshutdown$$00000007) for __rt_lib_shutdown_fp_trap_1
    libshutdown.o(.ARM.Collect$$libshutdown$$00000000) refers (Special) to libshutdown2.o(.ARM.Collect$$libshutdown$$0000000F) for __rt_lib_shutdown_heap_1
    libshutdown.o(.ARM.Collect$$libshutdown$$00000000) refers (Special) to libshutdown2.o(.ARM.Collect$$libshutdown$$00000010) for __rt_lib_shutdown_return
    libshutdown.o(.ARM.Collect$$libshutdown$$00000000) refers (Special) to libshutdown2.o(.ARM.Collect$$libshutdown$$0000000A) for __rt_lib_shutdown_signal_1
    libshutdown.o(.ARM.Collect$$libshutdown$$00000000) refers (Special) to libshutdown2.o(.ARM.Collect$$libshutdown$$00000004) for __rt_lib_shutdown_stdio_1
    libshutdown.o(.ARM.Collect$$libshutdown$$00000000) refers (Special) to libshutdown2.o(.ARM.Collect$$libshutdown$$0000000C) for __rt_lib_shutdown_user_alloc_1
    sys_command.o(.text) refers (Special) to use_no_semi.o(.text) for __I$use$semihosting
    sys_command.o(.text) refers (Special) to indicate_semi.o(.text) for __semihosting_library_function
    defsig_abrt_inner.o(.text) refers to defsig_general.o(.text) for __default_signal_display
    defsig_rtred_inner.o(.text) refers to defsig_general.o(.text) for __default_signal_display
    defsig_rtmem_inner.o(.text) refers to defsig_general.o(.text) for __default_signal_display
    defsig_rtmem_outer.o(.text) refers to defsig_rtmem_inner.o(.text) for __rt_SIGRTMEM_inner
    defsig_rtmem_outer.o(.text) refers to defsig_exit.o(.text) for __sig_exit
    defsig_rtmem_formal.o(.text) refers to rt_raise.o(.text) for __rt_raise
    defsig_stak_inner.o(.text) refers to defsig_general.o(.text) for __default_signal_display
    defsig_pvfn_inner.o(.text) refers to defsig_general.o(.text) for __default_signal_display
    defsig_cppl_inner.o(.text) refers to defsig_general.o(.text) for __default_signal_display
    defsig_segv_inner.o(.text) refers to defsig_general.o(.text) for __default_signal_display
    defsig_other.o(.text) refers to defsig_general.o(.text) for __default_signal_display


==============================================================================

Removing Unused input sections from the image.

    Removing main.o(.rev16_text), (4 bytes).
    Removing main.o(.revsh_text), (4 bytes).
    Removing main.o(i.SPIFlash_Initiate), (124 bytes).
    Removing main.o(i.uart_send), (92 bytes).
    Removing main.o(.data), (2 bytes).
    Removing main.o(.data), (1 bytes).
    Removing main.o(.data), (2 bytes).
    Removing main.o(.data), (1 bytes).
    Removing main.o(.data), (1 bytes).
    Removing main.o(.data), (1 bytes).
    Removing appfunctions.o(.rev16_text), (4 bytes).
    Removing appfunctions.o(.revsh_text), (4 bytes).
    Removing appfunctions.o(i.App_PowerDown), (40 bytes).
    Removing appfunctions.o(i.App_StartPlay), (4 bytes).
    Removing appfunctions.o(i.App_StopPlay), (4 bytes).
    Removing appfunctions.o(i.App_StopRecognize), (28 bytes).
    Removing appfunctions.o(i.delay1p25ms), (20 bytes).
    Removing appfunctions.o(i.vr_uart_send), (24 bytes).
    Removing appfunctions.o(.conststring), (153 bytes).
    Removing appfunctions.o(.conststring), (97 bytes).
    Removing appfunctions.o(.data), (32 bytes).
    Removing appfunctions.o(.data), (32 bytes).
    Removing appfunctions.o(.data), (1 bytes).
    Removing appfunctions.o(.data), (1 bytes).
    Removing appcallback.o(.rev16_text), (4 bytes).
    Removing appcallback.o(.revsh_text), (4 bytes).
    Removing inputkeyactions.o(.rev16_text), (4 bytes).
    Removing inputkeyactions.o(.revsh_text), (4 bytes).
    Removing inputkeyactions.o(i.Default_KeyHandler), (228 bytes).
    Removing inputkeyactions.o(i.PowerDown_KeypadHandler), (8 bytes).
    Removing interrupthandler.o(.rev16_text), (4 bytes).
    Removing interrupthandler.o(.revsh_text), (4 bytes).
    Removing interrupthandler.o(.data), (4 bytes).
    Removing powerdown.o(.rev16_text), (4 bytes).
    Removing powerdown.o(.revsh_text), (4 bytes).
    Removing powerdown.o(i.NVIC_DisableIRQ), (20 bytes).
    Removing powerdown.o(i.PowerDown), (14 bytes).
    Removing powerdown.o(i.PowerDown_Enter), (124 bytes).
    Removing powerdown.o(i.PowerDown_Exit), (56 bytes).
    Removing powerdown.o(i.PowerDown_GPIOConfigWakePin), (56 bytes).
    Removing powerdown.o(i.PowerDown_GPIOPostProc), (32 bytes).
    Removing powerdown.o(i.PowerDown_GPIOPreProc), (72 bytes).
    Removing powerdown.o(i.PowerDown_GPIOStableCount), (64 bytes).
    Removing powerdown.o(i.PowerDown_RTCPostProc), (32 bytes).
    Removing powerdown.o(i.PowerDown_RTCPreProc), (92 bytes).
    Removing powerdown.o(i.PowerDown_WDTPostProc), (28 bytes).
    Removing powerdown.o(i.PowerDown_WDTPreProc), (68 bytes).
    Removing preload.o(.rev16_text), (4 bytes).
    Removing preload.o(.revsh_text), (4 bytes).
    Removing preload.o(i.PreLoad_VRBin), (176 bytes).
    Removing micgetapp.o(.rev16_text), (4 bytes).
    Removing micgetapp.o(.revsh_text), (4 bytes).
    Removing micgetapp.o(i.MicGetApp_StopRec), (16 bytes).
    Removing md4app.o(.rev16_text), (4 bytes).
    Removing md4app.o(.revsh_text), (4 bytes).
    Removing md4app.o(i.MD4App_DecodeInitiate), (34 bytes).
    Removing md4app.o(i.MD4App_DecodeStartPlayByAddr), (112 bytes).
    Removing md4app.o(i.MD4App_DecodeStartPlayByID), (48 bytes).
    Removing md4app.o(i.MD4App_DecodeStopPlay), (26 bytes).
    Removing vronecmdapp.o(.rev16_text), (4 bytes).
    Removing vronecmdapp.o(.revsh_text), (4 bytes).
    Removing system_isd9100.o(.rev16_text), (4 bytes).
    Removing system_isd9100.o(.revsh_text), (4 bytes).
    Removing system_isd9100.o(i.SystemInit), (2 bytes).
    Removing sysclk.o(.rev16_text), (4 bytes).
    Removing sysclk.o(.revsh_text), (4 bytes).
    Removing audiomixer.o(.rev16_text), (4 bytes).
    Removing audiomixer.o(.revsh_text), (4 bytes).
    Removing audiomixer.o(i.AudioMixer_ChangeSR), (88 bytes).
    Removing audiomixer.o(i.AudioMixer_Initiate), (24 bytes).
    Removing audiomixer.o(i.AudioMixer_MixProcess), (408 bytes).
    Removing audiorom.o(.rev16_text), (4 bytes).
    Removing audiorom.o(.revsh_text), (4 bytes).
    Removing audiorom.o(i.AudioRom_GetAudioChunkInfo), (46 bytes).
    Removing audiorom.o(i.AudioRom_GetAudioNum), (14 bytes).
    Removing audiorom.o(i.AudioRom_GetRomHeader), (28 bytes).
    Removing configio.o(.rev16_text), (4 bytes).
    Removing configio.o(.revsh_text), (4 bytes).
    Removing configio.o(i.InputKey_Change), (32 bytes).
    Removing configio.o(i.InputKey_Initiate), (172 bytes).
    Removing configio.o(i.OutputPin_Set), (16 bytes).
    Removing configio.o(.constdata), (16 bytes).
    Removing configio.o(.constdata), (1 bytes).
    Removing configio.o(.constdata), (232 bytes).
    Removing bufctrl.o(.rev16_text), (4 bytes).
    Removing bufctrl.o(.revsh_text), (4 bytes).
    Removing bufctrl.o(i.BufCtrl_ReadWithCount), (52 bytes).
    Removing bufctrl.o(i.BufCtrl_SetBuf), (36 bytes).
    Removing bufctrl.o(i.BufCtrl_SetCallback), (10 bytes).
    Removing bufctrl.o(i.BufCtrl_WriteWithCount), (52 bytes).
    Removing micspk.o(.rev16_text), (4 bytes).
    Removing micspk.o(.revsh_text), (4 bytes).
    Removing micspk.o(i.MIC_Close), (72 bytes).
    Removing micspk.o(i.MIC_Stop), (16 bytes).
    Removing micspk.o(i.SPK_ChangeSR), (56 bytes).
    Removing micspk.o(i.SPK_Close), (36 bytes).
    Removing micspk.o(i.SPK_Pause), (2 bytes).
    Removing micspk.o(i.SPK_Resume), (2 bytes).
    Removing micspk.o(i.SPK_Start), (32 bytes).
    Removing pdmactrl.o(.rev16_text), (4 bytes).
    Removing pdmactrl.o(.revsh_text), (4 bytes).
    Removing pdmactrl.o(i.PdmaCtrl_Close), (40 bytes).
    Removing pdmactrl.o(i.PdmaCtrl_UnInit), (32 bytes).
    Removing playback.o(.rev16_text), (4 bytes).
    Removing playback.o(.revsh_text), (4 bytes).
    Removing playback.o(i.Playback_Add), (52 bytes).
    Removing playback.o(i.Playback_GetPlayingChannels), (28 bytes).
    Removing playback.o(i.Playback_MuteCtrl), (10 bytes).
    Removing playback.o(i.Playback_NeedUpdateOutputBuf), (24 bytes).
    Removing playback.o(i.Playback_PauseCtrl), (10 bytes).
    Removing playback.o(i.Playback_SetOutputBuf), (40 bytes).
    Removing playback.o(i.Playback_SetPauseMute), (120 bytes).
    Removing playback.o(i.Playback_SetVolumeDB), (28 bytes).
    Removing playback.o(i.Playback_StartPlay), (88 bytes).
    Removing playback.o(i.Playback_UpdateOutputBuf), (22 bytes).
    Removing spiflashutil.o(.rev16_text), (4 bytes).
    Removing spiflashutil.o(.revsh_text), (4 bytes).
    Removing spiflashutil.o(i.SPIFlahUtil_StartWriteEncodeData), (32 bytes).
    Removing spiflashutil.o(i.SPIFlashUtil_4KPagePartialWriteInitiate), (48 bytes).
    Removing spiflashutil.o(i.SPIFlashUtil_4KPagePartialWriteStart), (12 bytes).
    Removing spiflashutil.o(i.SPIFlashUtil_4KPagePartialWriteWithWait), (16 bytes).
    Removing spiflashutil.o(i.SPIFlashUtil_4KPagePartialWriting), (120 bytes).
    Removing spiflashutil.o(i.SPIFlashUtil_EndWriteEncodeData), (56 bytes).
    Removing spiflashutil.o(i.SPIFlashUtil_WriteEncodeData), (52 bytes).
    Removing spiflashutil.o(.data), (20 bytes).
    Removing volumectrl.o(.rev16_text), (4 bytes).
    Removing volumectrl.o(.revsh_text), (4 bytes).
    Removing volumectrl.o(i.VolumeCtrl_Process), (32 bytes).
    Removing volumectrl.o(i.VolumeCtrl_SetVolumeDB), (40 bytes).
    Removing record.o(.rev16_text), (4 bytes).
    Removing record.o(.revsh_text), (4 bytes).
    Removing record.o(i.Record_SetInBufCallback), (20 bytes).
    Removing record.o(i.Record_StopRec), (28 bytes).
    Removing spiflash.o(.rev16_text), (4 bytes).
    Removing spiflash.o(.revsh_text), (4 bytes).
    Removing spiflash.o(i.SPIFlash_4ByteAddr_Cmd), (64 bytes).
    Removing spiflash.o(i.SPIFlash_BurstRead), (30 bytes).
    Removing spiflash.o(i.SPIFlash_CheckBusy), (14 bytes).
    Removing spiflash.o(i.SPIFlash_ChipWriteEnable), (28 bytes).
    Removing spiflash.o(i.SPIFlash_EN4BAddress), (2 bytes).
    Removing spiflash.o(i.SPIFlash_EX4BAddress), (2 bytes).
    Removing spiflash.o(i.SPIFlash_EraseStart), (50 bytes).
    Removing spiflash.o(i.SPIFlash_GetChipInfo), (44 bytes).
    Removing spiflash.o(i.SPIFlash_GetVersion), (8 bytes).
    Removing spiflash.o(i.SPIFlash_GlobalProtect), (42 bytes).
    Removing spiflash.o(i.SPIFlash_Open), (112 bytes).
    Removing spiflash.o(i.SPIFlash_PowerDown), (20 bytes).
    Removing spiflash.o(i.SPIFlash_ReadDataAlign), (66 bytes).
    Removing spiflash.o(i.SPIFlash_ReadStatusReg), (26 bytes).
    Removing spiflash.o(i.SPIFlash_SendRecOneData), (82 bytes).
    Removing spiflash.o(i.SPIFlash_WaitReady), (18 bytes).
    Removing spiflash.o(i.SPIFlash_Write), (56 bytes).
    Removing spiflash.o(i.SPIFlash_WriteData), (262 bytes).
    Removing spiflash.o(i.SPIFlash_WriteDataAlign), (72 bytes).
    Removing spiflash.o(i.SPIFlash_WriteEnd), (24 bytes).
    Removing spiflash.o(i.SPIFlash_WritePage), (32 bytes).
    Removing spiflash.o(i.SPIFlash_WriteStart), (50 bytes).
    Removing spiflash.o(i.SPIFlash_WriteStatusReg), (32 bytes).
    Removing keypad.o(.rev16_text), (4 bytes).
    Removing keypad.o(.revsh_text), (4 bytes).
    Removing keypad.o(i.Keypad_GetTouchEnablePin), (40 bytes).
    Removing keypad.o(i.Keypad_InitKey), (100 bytes).
    Removing keypad.o(i.Keypad_InitKeyMatrixPort), (68 bytes).
    Removing keypad.o(i.Keypad_InitKeypad), (24 bytes).
    Removing keypad.o(i.Keypad_InitTgr), (52 bytes).
    Removing keypad.o(i.Keypad_InitTouch), (96 bytes).
    Removing keypad.o(i.Keypad_KeyDecDebounceCounter), (40 bytes).
    Removing keypad.o(i.Keypad_KeyMapHandler), (132 bytes).
    Removing keypad.o(i.Keypad_KeyTouchPressCounter), (44 bytes).
    Removing keypad.o(i.Keypad_ResetKey), (28 bytes).
    Removing keypad.o(i.Keypad_ResetTgr), (24 bytes).
    Removing keypad.o(i.Keypad_ScanKey), (128 bytes).
    Removing keypad.o(i.Keypad_ScanKeyPort), (172 bytes).
    Removing keypad.o(i.Keypad_ScanTgr), (96 bytes).
    Removing keypad.o(i.Keypad_ScanTgrPort), (84 bytes).
    Removing keypad.o(i.Keypad_ScanTouch), (64 bytes).
    Removing keypad.o(i.Keypad_TgrDecDebounceCounter), (40 bytes).
    Removing keypad.o(i.Keypad_TgrMapHandler), (104 bytes).
    Removing keypad.o(i.Keypad_TouchCalibration), (120 bytes).
    Removing keypad.o(i.Keypad_TouchCapSense), (12 bytes).
    Removing keypad.o(i.Keypad_TouchCaptureState), (176 bytes).
    Removing keypad.o(i.Keypad_TouchMapHandler), (176 bytes).
    Removing keypad.o(i.Keypad_TouchStartIRQ), (32 bytes).
    Removing keypad.o(.bss), (120 bytes).
    Removing keypad.o(.data), (10 bytes).
    Removing acmp.o(.rev16_text), (4 bytes).
    Removing acmp.o(.revsh_text), (4 bytes).
    Removing acmp.o(i.ACMP_Close), (24 bytes).
    Removing acmp.o(i.ACMP_Open), (38 bytes).
    Removing adc.o(.rev16_text), (4 bytes).
    Removing adc.o(.revsh_text), (4 bytes).
    Removing adc.o(i.ADC_ClearIntFlag), (52 bytes).
    Removing adc.o(i.ADC_Close), (2 bytes).
    Removing adc.o(i.ADC_DisableInt), (64 bytes).
    Removing adc.o(i.ADC_DisableMICBias), (16 bytes).
    Removing adc.o(i.ADC_EnableInt), (88 bytes).
    Removing adc.o(i.ADC_GetIntFlag), (52 bytes).
    Removing adc.o(i.ADC_GetPGAGaindB), (20 bytes).
    Removing adc.o(i.ADC_GetSampleRate), (68 bytes).
    Removing adc.o(i.ADC_SetALCMaxGaindB), (72 bytes).
    Removing adc.o(i.ADC_SetALCMinGaindB), (64 bytes).
    Removing adc.o(i.ADC_SetALCTargetLevel), (68 bytes).
    Removing adc.o(i.ADC_SetGPIOChannel), (40 bytes).
    Removing biq.o(.rev16_text), (4 bytes).
    Removing biq.o(.revsh_text), (4 bytes).
    Removing bod.o(.rev16_text), (4 bytes).
    Removing bod.o(.revsh_text), (4 bytes).
    Removing bod.o(i.BOD_Close), (16 bytes).
    Removing bod.o(i.BOD_Open), (48 bytes).
    Removing bod.o(i.BOD_SetDetectionTime), (24 bytes).
    Removing capsense.o(.rev16_text), (4 bytes).
    Removing capsense.o(.revsh_text), (4 bytes).
    Removing capsense.o(i.CapSense_GetCounter), (12 bytes).
    Removing capsense.o(i.CapSense_ResetCounter), (24 bytes).
    Removing capsense.o(i.CapSense_SelectCurrentSourceValue), (24 bytes).
    Removing capsense.o(i.CapSense_SetCycleCounts), (32 bytes).
    Removing clk.o(.rev16_text), (4 bytes).
    Removing clk.o(.revsh_text), (4 bytes).
    Removing clk.o(i.CLK_DeepPowerDown), (112 bytes).
    Removing clk.o(i.CLK_DeepSleep), (56 bytes).
    Removing clk.o(i.CLK_DisableLDO), (28 bytes).
    Removing clk.o(i.CLK_DisableModuleClock), (28 bytes).
    Removing clk.o(i.CLK_DisableXtalRC), (28 bytes).
    Removing clk.o(i.CLK_GetHIRCFreq), (24 bytes).
    Removing clk.o(i.CLK_GetLXTFreq), (24 bytes).
    Removing clk.o(i.CLK_SetSysTickClockSrc), (32 bytes).
    Removing clk.o(i.CLK_Sleep), (44 bytes).
    Removing clk.o(i.CLK_StandbyPowerDown), (56 bytes).
    Removing clk.o(i.CLK_SysTickDelay), (36 bytes).
    Removing crc.o(.rev16_text), (4 bytes).
    Removing crc.o(.revsh_text), (4 bytes).
    Removing crc.o(i.CRC_Calc), (24 bytes).
    Removing crc.o(i.CRC_Close), (36 bytes).
    Removing crc.o(i.CRC_Init), (52 bytes).
    Removing crc.o(i.CRC_Open), (36 bytes).
    Removing dpwm.o(.rev16_text), (4 bytes).
    Removing dpwm.o(.revsh_text), (4 bytes).
    Removing dpwm.o(i.DPWM_Close), (2 bytes).
    Removing dpwm.o(i.DPWM_GetSampleRate), (32 bytes).
    Removing dpwm.o(i.DPWM_SetSampleRate), (60 bytes).
    Removing dpwm.o(i.DPWM_WriteFIFO), (32 bytes).
    Removing fmc.o(.rev16_text), (4 bytes).
    Removing fmc.o(.revsh_text), (4 bytes).
    Removing fmc.o(i.FMC_Close), (20 bytes).
    Removing fmc.o(i.FMC_DisableConfigUpdate), (20 bytes).
    Removing fmc.o(i.FMC_DisableLDUpdate), (20 bytes).
    Removing fmc.o(i.FMC_EnableConfigUpdate), (20 bytes).
    Removing fmc.o(i.FMC_EnableLDUpdate), (20 bytes).
    Removing fmc.o(i.FMC_Erase), (72 bytes).
    Removing fmc.o(i.FMC_GetBootSource), (24 bytes).
    Removing fmc.o(i.FMC_Open), (20 bytes).
    Removing fmc.o(i.FMC_Read), (36 bytes).
    Removing fmc.o(i.FMC_ReadCID), (36 bytes).
    Removing fmc.o(i.FMC_ReadConfig), (36 bytes).
    Removing fmc.o(i.FMC_ReadDID), (36 bytes).
    Removing fmc.o(i.FMC_ReadDataFlashBaseAddr), (12 bytes).
    Removing fmc.o(i.FMC_SetBootSource), (36 bytes).
    Removing fmc.o(i.FMC_Write), (40 bytes).
    Removing fmc.o(i.FMC_WriteConfig), (70 bytes).
    Removing gpio.o(.rev16_text), (4 bytes).
    Removing gpio.o(.revsh_text), (4 bytes).
    Removing gpio.o(i.GPIO_DisableInt), (28 bytes).
    Removing gpio.o(i.GPIO_EnableInt), (26 bytes).
    Removing i2c.o(.rev16_text), (4 bytes).
    Removing i2c.o(.revsh_text), (4 bytes).
    Removing i2c.o(i.I2C_ClearTimeoutFlag), (10 bytes).
    Removing i2c.o(i.I2C_Close), (40 bytes).
    Removing i2c.o(i.I2C_DisableInt), (10 bytes).
    Removing i2c.o(i.I2C_DisableTimeout), (10 bytes).
    Removing i2c.o(i.I2C_EnableInt), (10 bytes).
    Removing i2c.o(i.I2C_EnableTimeout), (26 bytes).
    Removing i2c.o(i.I2C_GetBusClockFreq), (24 bytes).
    Removing i2c.o(i.I2C_GetData), (4 bytes).
    Removing i2c.o(i.I2C_GetIntFlag), (8 bytes).
    Removing i2c.o(i.I2C_GetStatus), (4 bytes).
    Removing i2c.o(i.I2C_Open), (56 bytes).
    Removing i2c.o(i.I2C_SetBusClockFreq), (48 bytes).
    Removing i2c.o(i.I2C_SetData), (4 bytes).
    Removing i2c.o(i.I2C_SetSlaveAddr), (36 bytes).
    Removing i2c.o(i.I2C_SetSlaveAddrMask), (34 bytes).
    Removing i2c.o(i.I2C_Trigger), (48 bytes).
    Removing i2s.o(.rev16_text), (4 bytes).
    Removing i2s.o(.revsh_text), (4 bytes).
    Removing i2s.o(i.I2S_Close), (24 bytes).
    Removing i2s.o(i.I2S_DisableInt), (8 bytes).
    Removing i2s.o(i.I2S_DisableMCLK), (12 bytes).
    Removing i2s.o(i.I2S_EnableInt), (8 bytes).
    Removing i2s.o(i.I2S_EnableMCLK), (70 bytes).
    Removing i2s.o(i.I2S_GetSourceClockFreq), (52 bytes).
    Removing i2s.o(i.I2S_Open), (132 bytes).
    Removing pdma.o(.rev16_text), (4 bytes).
    Removing pdma.o(.revsh_text), (4 bytes).
    Removing pdma.o(i.PDMA_Close), (12 bytes).
    Removing pwm.o(.rev16_text), (4 bytes).
    Removing pwm.o(.revsh_text), (4 bytes).
    Removing pwm.o(i.PWM_ClearCaptureIntFlag), (36 bytes).
    Removing pwm.o(i.PWM_ConfigCaptureChannel), (264 bytes).
    Removing pwm.o(i.PWM_DisableCapture), (46 bytes).
    Removing pwm.o(i.PWM_DisableCaptureInt), (18 bytes).
    Removing pwm.o(i.PWM_DisableInt), (12 bytes).
    Removing pwm.o(i.PWM_DisableOutput), (8 bytes).
    Removing pwm.o(i.PWM_EnableCapture), (46 bytes).
    Removing pwm.o(i.PWM_EnableCaptureInt), (16 bytes).
    Removing pwm.o(i.PWM_EnableDeadZone), (36 bytes).
    Removing pwm.o(i.PWM_EnableInt), (12 bytes).
    Removing pwm.o(i.PWM_ForceStop), (38 bytes).
    Removing pwm.o(i.PWM_GetCaptureIntFlag), (24 bytes).
    Removing pwm.o(i.PWM_Stop), (32 bytes).
    Removing rtc.o(.rev16_text), (4 bytes).
    Removing rtc.o(.revsh_text), (4 bytes).
    Removing rtc.o(i.RTC_32KCalibration), (72 bytes).
    Removing rtc.o(i.RTC_Close), (16 bytes).
    Removing rtc.o(i.RTC_DisableInt), (60 bytes).
    Removing rtc.o(i.RTC_DisableWakeUp), (32 bytes).
    Removing rtc.o(i.RTC_EnableInt), (28 bytes).
    Removing rtc.o(i.RTC_EnableWakeUp), (32 bytes).
    Removing rtc.o(i.RTC_GetAlarmDateAndTime), (264 bytes).
    Removing rtc.o(i.RTC_GetDateAndTime), (240 bytes).
    Removing rtc.o(i.RTC_GetDayOfWeek), (16 bytes).
    Removing rtc.o(i.RTC_Open), (244 bytes).
    Removing rtc.o(i.RTC_SetAlarmDate), (120 bytes).
    Removing rtc.o(i.RTC_SetAlarmDateAndTime), (204 bytes).
    Removing rtc.o(i.RTC_SetAlarmTime), (148 bytes).
    Removing rtc.o(i.RTC_SetDate), (124 bytes).
    Removing rtc.o(i.RTC_SetDateAndTime), (204 bytes).
    Removing rtc.o(i.RTC_SetTickPeriod), (32 bytes).
    Removing rtc.o(i.RTC_SetTime), (148 bytes).
    Removing rtc.o(.data), (52 bytes).
    Removing spi.o(.rev16_text), (4 bytes).
    Removing spi.o(.revsh_text), (4 bytes).
    Removing spi.o(i.SPI_Close), (32 bytes).
    Removing spi.o(i.SPI_GetBusClock), (22 bytes).
    Removing spi.o(i.SPI_GetVarClock), (22 bytes).
    Removing spi.o(i.SPI_Open), (36 bytes).
    Removing spi.o(i.SPI_SetBusClock), (80 bytes).
    Removing spi.o(i.SPI_SetVarClock), (64 bytes).
    Removing sys.o(.rev16_text), (4 bytes).
    Removing sys.o(.revsh_text), (4 bytes).
    Removing sys.o(i.SYS_ClearResetSrc), (12 bytes).
    Removing sys.o(i.SYS_GetResetSrc), (8 bytes).
    Removing sys.o(i.SYS_IsRegLocked), (16 bytes).
    Removing sys.o(i.SYS_LockReg), (12 bytes).
    Removing sys.o(i.SYS_ReadPDID), (8 bytes).
    Removing sys.o(i.SYS_ResetCPU), (24 bytes).
    Removing sys.o(i.SYS_ResetChip), (24 bytes).
    Removing sys.o(i.SYS_UnlockReg), (32 bytes).
    Removing talarm.o(.rev16_text), (4 bytes).
    Removing talarm.o(.revsh_text), (4 bytes).
    Removing talarm.o(i.TALARM_Close), (16 bytes).
    Removing talarm.o(i.TALARM_Open), (48 bytes).
    Removing timer.o(.rev16_text), (4 bytes).
    Removing timer.o(.revsh_text), (4 bytes).
    Removing timer.o(i.TIMER_Close), (6 bytes).
    Removing timer.o(i.TIMER_Delay), (180 bytes).
    Removing timer.o(i.TIMER_GetWorkingFreq), (24 bytes).
    Removing uart.o(.rev16_text), (4 bytes).
    Removing uart.o(.revsh_text), (4 bytes).
    Removing uart.o(i.UART_Close), (6 bytes).
    Removing uart.o(i.UART_DisableFlowCtrl), (12 bytes).
    Removing uart.o(i.UART_EnableFlowCtrl), (38 bytes).
    Removing uart.o(i.UART_Read), (26 bytes).
    Removing uart.o(i.UART_SelectIrDAMode), (40 bytes).
    Removing uart.o(i.UART_SetLine_Config), (100 bytes).
    Removing uart.o(i.UART_SetTimeoutCnt), (22 bytes).
    Removing uart.o(i.UART_Write), (26 bytes).
    Removing wdt.o(.rev16_text), (4 bytes).
    Removing wdt.o(.revsh_text), (4 bytes).
    Removing wdt.o(i.WDT_ClearResetFlag), (32 bytes).
    Removing wdt.o(i.WDT_ClearTimeOutIntFlag), (32 bytes).
    Removing wdt.o(i.WDT_Close), (24 bytes).
    Removing wdt.o(i.WDT_DisableInt), (28 bytes).
    Removing wdt.o(i.WDT_EnableInt), (28 bytes).
    Removing wdt.o(i.WDT_Open), (32 bytes).
    Removing wdt.o(i.WDT_ResetCounter), (32 bytes).
    Removing retarget.o(.rev16_text), (4 bytes).
    Removing retarget.o(.revsh_text), (4 bytes).
    Removing retarget.o(i.GetChar), (20 bytes).
    Removing retarget.o(i.Hard_Fault_Handler), (40 bytes).
    Removing retarget.o(i.IsDebugFifoEmpty), (16 bytes).
    Removing retarget.o(i.SendChar), (8 bytes).
    Removing retarget.o(i.SendChar_ToUART), (32 bytes).
    Removing retarget.o(i._ttywrch), (8 bytes).
    Removing retarget.o(i.ferror), (6 bytes).
    Removing retarget.o(i.fgetc), (8 bytes).
    Removing retarget.o(i.fputc), (12 bytes).
    Removing retarget.o(i.kbhit), (16 bytes).
    Removing retarget.o(i.stackDump), (168 bytes).
    Removing retarget.o(.data), (4 bytes).
    Removing retarget.o(.data), (4 bytes).
    Removing md4decode.o(.rev16_text), (4 bytes).
    Removing md4decode.o(.revsh_text), (4 bytes).
    Removing md4decode.o(i.MD4_DecodeInitiate), (160 bytes).
    Removing md4decode.o(i.MD4_DecodeSampleCounts), (4 bytes).
    Removing md4decode.o(i.MD4_GetVersion), (8 bytes).
    Removing CSpotterSDKApi.o(i.CSpotter_GetMemoryUsage_Multi), (18 bytes).
    Removing CSpotterSDKApi.o(i.CSpotter_GetMemoryUsage_MultiWithExtRejModel), (20 bytes).
    Removing CSpotterSDKApi.o(i.CSpotter_GetMemoryUsage_MultiWithSpeaker), (20 bytes).
    Removing CSpotterSDKApi.o(i.CSpotter_GetMemoryUsage_SepWithExtRejModel), (24 bytes).
    Removing CSpotterSDKApi.o(i.CSpotter_GetMemoryUsage_SepWithSpeaker), (24 bytes).
    Removing CSpotterSDKApi.o(i.CSpotter_GetMemoryUsage_SepWithSpeakerAndExtRejModel), (24 bytes).
    Removing CSpotterSDKApi.o(i.CSpotter_GetNBestScore), (96 bytes).
    Removing CSpotterSDKApi.o(i.CSpotter_GetNumWord), (52 bytes).
    Removing CSpotterSDKApi.o(i.CSpotter_GetResultCmdModel), (120 bytes).
    Removing CSpotterSDKApi.o(i.CSpotter_GetResultEPD), (80 bytes).
    Removing CSpotterSDKApi.o(i.CSpotter_GetResultMapID), (48 bytes).
    Removing CSpotterSDKApi.o(i.CSpotter_GetResultScore), (68 bytes).
    Removing CSpotterSDKApi.o(i.CSpotter_GetSpeakerResult), (48 bytes).
    Removing CSpotterSDKApi.o(i.CSpotter_GetStateSize), (88 bytes).
    Removing CSpotterSDKApi.o(i.CSpotter_Init_Multi), (34 bytes).
    Removing CSpotterSDKApi.o(i.CSpotter_Init_SepWithExtRejModel), (30 bytes).
    Removing CSpotterSDKApi.o(i.CSpotter_IsActiveCmd), (48 bytes).
    Removing CSpotterSDKApi.o(i.CSpotter_IsVoiceActive), (36 bytes).
    Removing CSpotterSDKApi.o(i.CSpotter_Release), (40 bytes).
    Removing CSpotterSDKApi.o(i.CSpotter_SetCmdResponseReward), (48 bytes).
    Removing CSpotterSDKApi.o(i.CSpotter_SetCmdReward), (48 bytes).
    Removing CSpotterSDKApi.o(i.CSpotter_SetEnableNBest), (48 bytes).
    Removing CSpotterSDKApi.o(i.CSpotter_SetEnableRejectedResult), (48 bytes).
    Removing CSpotterSDKApi.o(i.CSpotter_SetEndStateRange), (48 bytes).
    Removing CSpotterSDKApi.o(i.CSpotter_SetFreqWarpFactor), (48 bytes).
    Removing CSpotterSDKApi.o(i.CSpotter_SetMinEnergyThreshd), (48 bytes).
    Removing CSpotterSDKApi.o(i.CSpotter_SetOLGarbThreshd), (48 bytes).
    Removing CSpotterSDKApi.o(i.CSpotter_SetPartialRejectLevel), (84 bytes).
    Removing CSpotterSDKApi.o(i.CSpotter_SetPartialRejectStateNum), (48 bytes).
    Removing CSpotterSDKApi.o(i.CSpotter_SetRejectedResultEnergyThreshd), (48 bytes).
    Removing CSpotterSDKApi.o(i.CSpotter_SetRejectionLevel), (48 bytes).
    Removing CSpotterSDKApi.o(i.CSpotter_SetResponseTime), (48 bytes).
    Removing CSpotterSDKApi.o(i.CSpotter_SetResultMapID), (132 bytes).
    Removing CSpotterSDKApi.o(i.CSpotter_SetSpeakerIdentLevel), (36 bytes).
    Removing CSpotterSDKApi.o(i.CSpotter_VerInfo), (12 bytes).
    Removing CSpotterSDKApi.o(.conststring), (84 bytes).
    Removing CSpotterSDKApi.o(.data), (4 bytes).
    Removing BsrAli.o(i.BsrJuan), (64 bytes).
    Removing BsrGo.o(i.NINJA_API_10), (30 bytes).
    Removing BsrGo.o(i.NINJA_API_12), (100 bytes).
    Removing BsrGo.o(i.NINJA_API_14), (440 bytes).
    Removing BsrGo.o(i.NINJA_API_16), (30 bytes).
    Removing BsrGo.o(i.NINJA_API_17), (40 bytes).
    Removing BsrGo.o(i.NINJA_API_18), (40 bytes).
    Removing BsrGo.o(i.NINJA_API_20), (30 bytes).
    Removing BsrGo.o(i.NINJA_API_22), (16 bytes).
    Removing BsrGo.o(i.NINJA_API_24), (30 bytes).
    Removing BsrGo.o(i.NINJA_API_25), (40 bytes).
    Removing BsrGo.o(i.NINJA_API_27), (26 bytes).
    Removing BsrGo.o(i.NINJA_API_28), (22 bytes).
    Removing BsrGo.o(i.NINJA_API_29), (22 bytes).
    Removing BsrGo.o(i.NINJA_API_30), (12 bytes).
    Removing BsrGo.o(i.NINJA_API_31), (14 bytes).
    Removing BsrGo.o(i.NINJA_API_32), (14 bytes).
    Removing BsrGo.o(i.NINJA_API_33), (14 bytes).
    Removing BsrGo.o(i.NINJA_API_34), (14 bytes).
    Removing BsrGo.o(i.NINJA_API_35), (14 bytes).
    Removing BsrGo.o(i.NINJA_API_36), (14 bytes).
    Removing BsrGo.o(i.NINJA_API_38), (24 bytes).
    Removing BsrGo.o(i.NINJA_API_39), (36 bytes).
    Removing BsrGo.o(i.NINJA_API_40), (72 bytes).
    Removing BsrGo.o(i.NINJA_API_41), (14 bytes).
    Removing BsrGo.o(i.NINJA_API_42), (14 bytes).
    Removing BsrGo.o(i.NINJA_API_43), (82 bytes).
    Removing BsrGo.o(i.NINJA_API_44), (20 bytes).
    Removing BsrGo.o(i.NINJA_API_45), (22 bytes).
    Removing BsrGo.o(i.NINJA_API_46), (52 bytes).
    Removing BsrGo.o(i.NINJA_API_49), (40 bytes).
    Removing BsrGo.o(i.NINJA_API_50), (14 bytes).
    Removing BsrGo.o(i.NINJA_API_51), (14 bytes).
    Removing BsrGo.o(i.NINJA_API_52), (30 bytes).
    Removing BsrGo.o(i.NINJA_API_57), (26 bytes).
    Removing BsrGo.o(i.NINJA_API_58), (30 bytes).
    Removing BsrGo.o(i.NINJA_API_59), (14 bytes).
    Removing BsrGo.o(i.NINJA_API_62), (18 bytes).
    Removing BsrGo.o(i.NINJA_API_63), (18 bytes).
    Removing BsrGo.o(i.NINJA_API_64), (8 bytes).
    Removing BsrGo.o(i.NINJA_API_65), (26 bytes).
    Removing BsrGo.o(i.NINJA_API_66), (26 bytes).
    Removing BsrGo.o(i.NINJA_API_67), (30 bytes).
    Removing BsrGo.o(i.NINJA_API_68), (18 bytes).
    Removing BsrGo.o(i.NINJA_API_69), (30 bytes).
    Removing BsrGo.o(i.NINJA_API_70), (18 bytes).
    Removing BsrGo.o(i.NINJA_API_71), (30 bytes).
    Removing BsrGo.o(i.NINJA_API_72), (32 bytes).
    Removing BsrGo.o(i.NINJA_API_74), (24 bytes).
    Removing BsrGo.o(i.NINJA_API_8), (20 bytes).
    Removing BsrGo.o(i.NINJA_API_9), (32 bytes).
    Removing BsrGo.o(.conststring), (82 bytes).
    Removing BsrGo.o(.data), (4 bytes).
    Removing BsrDon.o(i.BsrAndy), (26 bytes).
    Removing BsrDon.o(i.BsrAric), (14 bytes).
    Removing BsrDon.o(i.BsrAron), (14 bytes).
    Removing BsrDon.o(i.BsrAsha), (32 bytes).
    Removing BsrDon.o(i.BsrAsia), (34 bytes).
    Removing BsrDon.o(i.BsrAxel), (26 bytes).
    Removing BsrDon.o(i.BsrBeau), (20 bytes).
    Removing BsrDon.o(i.BsrBee), (14 bytes).
    Removing BsrDon.o(i.BsrBeth), (20 bytes).
    Removing BsrDon.o(i.BsrBill), (32 bytes).
    Removing BsrJim.o(i.BsrAve), (12 bytes).
    Removing BsrJim.o(i.BsrBeni), (36 bytes).
    Removing BsrJim.o(i.BsrEla), (20 bytes).
    Removing BsrJim.o(i.BsrEle), (150 bytes).
    Removing BsrJim.o(i.BsrEve), (20 bytes).
    Removing BsrJim.o(i.BsrIan), (158 bytes).
    Removing BsrJim.o(i.BsrJay), (18 bytes).
    Removing BsrJim.o(i.BsrJim), (20 bytes).
    Removing BsrJim.o(i.BsrJoe), (32 bytes).
    Removing BsrJim.o(i.BsrJoea), (64 bytes).
    Removing BsrJim.o(i.BsrJom), (36 bytes).
    Removing BsrJim.o(i.BsrJome), (18 bytes).
    Removing BsrJim.o(i.BsrJon), (42 bytes).
    Removing BsrJim.o(i.BsrJone), (18 bytes).
    Removing BsrJim.o(i.BsrJoy), (24 bytes).
    Removing BsrJim.o(i.BsrJoyce), (40 bytes).
    Removing BsrJim.o(i.BsrKai), (18 bytes).
    Removing BsrJim.o(i.BsrKia), (52 bytes).
    Removing BsrJim.o(i.BsrLea), (8 bytes).
    Removing BsrJim.o(i.BsrLee), (18 bytes).
    Removing BsrJim.o(i.BsrLeo), (20 bytes).
    Removing BsrJim.o(i.BsrLeonard), (50 bytes).
    Removing BsrJim.o(i.BsrLuz), (8 bytes).
    Removing BsrJim.o(i.BsrMax), (146 bytes).
    Removing BsrJim.o(i.BsrMickey), (122 bytes).
    Removing BsrJim.o(i.BsrMilton), (32 bytes).
    Removing BsrJim.o(i.BsrMonica), (68 bytes).
    Removing BsrJim.o(i.BsrMorris), (32 bytes).
    Removing BsrJoe.o(i.BsrAdan), (4 bytes).
    Removing BsrJoe.o(i.BsrAlan), (26 bytes).
    Removing BsrJoe.o(i.BsrAldo), (26 bytes).
    Removing BsrJoe.o(i.BsrAlec), (60 bytes).
    Removing BsrKai.o(i.BsrMia), (42 bytes).
    Removing BsrKai.o(i.BsrNoe), (22 bytes).
    Removing BsrKai.o(i.BsrNoei), (32 bytes).
    Removing BsrJoy.o(i.BsrCruz), (34 bytes).
    Removing BsrJoy.o(i.BsrDale), (18 bytes).
    Removing BsrJoy.o(i.BsrDana), (78 bytes).
    Removing BsrJoy.o(i.BsrDara), (8 bytes).
    Removing BsrJoy.o(i.BsrDrew), (8 bytes).
    Removing BsrAna.o(i.BsrGene), (324 bytes).
    Removing BsrAnn.o(i.BsrHali), (560 bytes).
    Removing BsrAnn.o(i.BsrHans), (148 bytes).
    Removing BsrAnn.o(i.BsrHope), (148 bytes).

538 unused section(s) (total 21857 bytes) removed from the image.

==============================================================================

Image Symbol Table

    Local Symbols

    Symbol Name                              Value     Ov Type        Size  Object(Section)

    RESET                                    0x00000000   Section      192  startup_isd9100.o(RESET)
    ../clib/angel/boardlib.s                 0x00000000   Number         0  boardinit3.o ABSOLUTE
    ../clib/angel/boardlib.s                 0x00000000   Number         0  boardinit2.o ABSOLUTE
    ../clib/angel/boardlib.s                 0x00000000   Number         0  boardinit1.o ABSOLUTE
    ../clib/angel/boardlib.s                 0x00000000   Number         0  boardshut.o ABSOLUTE
    ../clib/angel/handlers.s                 0x00000000   Number         0  __scatter_copy.o ABSOLUTE
    ../clib/angel/handlers.s                 0x00000000   Number         0  __scatter_zi.o ABSOLUTE
    ../clib/angel/kernel.s                   0x00000000   Number         0  __rtentry2.o ABSOLUTE
    ../clib/angel/kernel.s                   0x00000000   Number         0  __rtentry4.o ABSOLUTE
    ../clib/angel/kernel.s                   0x00000000   Number         0  __rtentry.o ABSOLUTE
    ../clib/angel/kernel.s                   0x00000000   Number         0  rtexit2.o ABSOLUTE
    ../clib/angel/kernel.s                   0x00000000   Number         0  rtexit.o ABSOLUTE
    ../clib/angel/rt.s                       0x00000000   Number         0  rt_raise.o ABSOLUTE
    ../clib/angel/rt.s                       0x00000000   Number         0  aeabi_idiv0.o ABSOLUTE
    ../clib/angel/rt.s                       0x00000000   Number         0  aeabi_idiv0_sigfpe.o ABSOLUTE
    ../clib/angel/rt.s                       0x00000000   Number         0  rt_div0.o ABSOLUTE
    ../clib/angel/scatterp.s                 0x00000000   Number         0  __scatter.o ABSOLUTE
    ../clib/angel/startup.s                  0x00000000   Number         0  __main.o ABSOLUTE
    ../clib/angel/sys.s                      0x00000000   Number         0  libspace.o ABSOLUTE
    ../clib/angel/sys.s                      0x00000000   Number         0  use_no_semi.o ABSOLUTE
    ../clib/angel/sys.s                      0x00000000   Number         0  tempstk.o ABSOLUTE
    ../clib/angel/sys.s                      0x00000000   Number         0  indicate_semi.o ABSOLUTE
    ../clib/angel/sys.s                      0x00000000   Number         0  sys_stackheap_outer.o ABSOLUTE
    ../clib/angel/sysapp.c                   0x00000000   Number         0  sys_command.o ABSOLUTE
    ../clib/angel/sysapp.c                   0x00000000   Number         0  sys_exit.o ABSOLUTE
    ../clib/armsys.c                         0x00000000   Number         0  _get_argv_nomalloc.o ABSOLUTE
    ../clib/armsys.c                         0x00000000   Number         0  argv_veneer.o ABSOLUTE
    ../clib/armsys.c                         0x00000000   Number         0  no_argv.o ABSOLUTE
    ../clib/division.s                       0x00000000   Number         0  aeabi_sdivfast.o ABSOLUTE
    ../clib/division.s                       0x00000000   Number         0  aeabi_sdivfast_div0.o ABSOLUTE
    ../clib/heapalloc.c                      0x00000000   Number         0  hrguard.o ABSOLUTE
    ../clib/heapaux.c                        0x00000000   Number         0  heapauxi.o ABSOLUTE
    ../clib/libinit.s                        0x00000000   Number         0  libinit.o ABSOLUTE
    ../clib/libinit.s                        0x00000000   Number         0  libinit2.o ABSOLUTE
    ../clib/libinit.s                        0x00000000   Number         0  libshutdown.o ABSOLUTE
    ../clib/libinit.s                        0x00000000   Number         0  libshutdown2.o ABSOLUTE
    ../clib/longlong.c                       0x00000000   Number         0  llmul.o ABSOLUTE
    ../clib/memcpset.c                       0x00000000   Number         0  rt_memcpy.o ABSOLUTE
    ../clib/memcpset.c                       0x00000000   Number         0  rt_memclr.o ABSOLUTE
    ../clib/memcpset.c                       0x00000000   Number         0  rt_memcpy.o ABSOLUTE
    ../clib/misc.s                           0x00000000   Number         0  printf_stubs.o ABSOLUTE
    ../clib/printf.c                         0x00000000   Number         0  __printf_flags_ss_wp.o ABSOLUTE
    ../clib/printf.c                         0x00000000   Number         0  __printf_ss_wp.o ABSOLUTE
    ../clib/printf.c                         0x00000000   Number         0  __printf_flags_wp.o ABSOLUTE
    ../clib/printf.c                         0x00000000   Number         0  __printf_wp.o ABSOLUTE
    ../clib/printf.c                         0x00000000   Number         0  __printf_flags_ss.o ABSOLUTE
    ../clib/printf.c                         0x00000000   Number         0  __printf_ss.o ABSOLUTE
    ../clib/printf.c                         0x00000000   Number         0  __printf_flags.o ABSOLUTE
    ../clib/printf.c                         0x00000000   Number         0  _printf_hex_int_ll_ptr.o ABSOLUTE
    ../clib/printf.c                         0x00000000   Number         0  _printf_char_file.o ABSOLUTE
    ../clib/printf.c                         0x00000000   Number         0  _printf_hex_ptr.o ABSOLUTE
    ../clib/printf.c                         0x00000000   Number         0  _printf_hex_int_ll.o ABSOLUTE
    ../clib/printf.c                         0x00000000   Number         0  _printf_hex_int.o ABSOLUTE
    ../clib/printf.c                         0x00000000   Number         0  _printf_hex_ll.o ABSOLUTE
    ../clib/printf.c                         0x00000000   Number         0  __printf.o ABSOLUTE
    ../clib/printf.c                         0x00000000   Number         0  noretval__2printf.o ABSOLUTE
    ../clib/printf.c                         0x00000000   Number         0  __2printf.o ABSOLUTE
    ../clib/printf.c                         0x00000000   Number         0  _printf_hex_int_ptr.o ABSOLUTE
    ../clib/printf.c                         0x00000000   Number         0  _printf_intcommon.o ABSOLUTE
    ../clib/printf.c                         0x00000000   Number         0  _printf_hex_ll_ptr.o ABSOLUTE
    ../clib/printf.c                         0x00000000   Number         0  _printf_char_common.o ABSOLUTE
    ../clib/printf.c                         0x00000000   Number         0  __printf_nopercent.o ABSOLUTE
    ../clib/printf_percent.s                 0x00000000   Number         0  _printf_percent_end.o ABSOLUTE
    ../clib/printf_percent.s                 0x00000000   Number         0  _printf_x.o ABSOLUTE
    ../clib/printf_percent.s                 0x00000000   Number         0  _printf_percent.o ABSOLUTE
    ../clib/signal.c                         0x00000000   Number         0  defsig_rtmem_inner.o ABSOLUTE
    ../clib/signal.c                         0x00000000   Number         0  defsig_general.o ABSOLUTE
    ../clib/signal.c                         0x00000000   Number         0  defsig_rtmem_outer.o ABSOLUTE
    ../clib/signal.c                         0x00000000   Number         0  defsig_rtmem_formal.o ABSOLUTE
    ../clib/signal.c                         0x00000000   Number         0  defsig_fpe_outer.o ABSOLUTE
    ../clib/signal.c                         0x00000000   Number         0  defsig_fpe_formal.o ABSOLUTE
    ../clib/signal.c                         0x00000000   Number         0  defsig_pvfn_inner.o ABSOLUTE
    ../clib/signal.c                         0x00000000   Number         0  defsig_cppl_inner.o ABSOLUTE
    ../clib/signal.c                         0x00000000   Number         0  defsig_segv_inner.o ABSOLUTE
    ../clib/signal.c                         0x00000000   Number         0  defsig_other.o ABSOLUTE
    ../clib/signal.c                         0x00000000   Number         0  defsig_fpe_inner.o ABSOLUTE
    ../clib/signal.c                         0x00000000   Number         0  defsig_exit.o ABSOLUTE
    ../clib/signal.c                         0x00000000   Number         0  __raise.o ABSOLUTE
    ../clib/signal.c                         0x00000000   Number         0  defsig_abrt_inner.o ABSOLUTE
    ../clib/signal.c                         0x00000000   Number         0  defsig_rtred_inner.o ABSOLUTE
    ../clib/signal.c                         0x00000000   Number         0  defsig_stak_inner.o ABSOLUTE
    ../clib/signal.s                         0x00000000   Number         0  defsig.o ABSOLUTE
    ../clib/stdlib.c                         0x00000000   Number         0  exit.o ABSOLUTE
    ../fplib/cfplib/dmul.c                   0x00000000   Number         0  dmul.o ABSOLUTE
    ../fplib/cfplib/ffix.c                   0x00000000   Number         0  dfixui.o ABSOLUTE
    ../fplib/cfplib/fflt.c                   0x00000000   Number         0  dflti.o ABSOLUTE
    ../fplib/cfplib/fpinit.c                 0x00000000   Number         0  fpinit.o ABSOLUTE
    ../fplib/usenofp.s                       0x00000000   Number         0  usenofp.o ABSOLUTE
    ..\..\Library\Device\Nuvoton\ISD9100\Source\ARM\startup_ISD9100.s 0x00000000   Number         0  startup_isd9100.o ABSOLUTE
    ..\..\Library\Device\Nuvoton\ISD9100\Source\system_ISD9100.c 0x00000000   Number         0  system_isd9100.o ABSOLUTE
    ..\..\Library\Framework\src\AudioMixer.c 0x00000000   Number         0  audiomixer.o ABSOLUTE
    ..\..\Library\Framework\src\AudioRom.c   0x00000000   Number         0  audiorom.o ABSOLUTE
    ..\..\Library\Framework\src\BufCtrl.c    0x00000000   Number         0  bufctrl.o ABSOLUTE
    ..\..\Library\Framework\src\ConfigIO.c   0x00000000   Number         0  configio.o ABSOLUTE
    ..\..\Library\Framework\src\MicSpk.c     0x00000000   Number         0  micspk.o ABSOLUTE
    ..\..\Library\Framework\src\PdmaCtrl.c   0x00000000   Number         0  pdmactrl.o ABSOLUTE
    ..\..\Library\Framework\src\Playback.c   0x00000000   Number         0  playback.o ABSOLUTE
    ..\..\Library\Framework\src\Record.c     0x00000000   Number         0  record.o ABSOLUTE
    ..\..\Library\Framework\src\SPIFlashUtil.c 0x00000000   Number         0  spiflashutil.o ABSOLUTE
    ..\..\Library\Framework\src\SysClk.c     0x00000000   Number         0  sysclk.o ABSOLUTE
    ..\..\Library\Framework\src\VolumeCtrl.c 0x00000000   Number         0  volumectrl.o ABSOLUTE
    ..\..\Library\IO\src\Keypad.c            0x00000000   Number         0  keypad.o ABSOLUTE
    ..\..\Library\StdDriver\src\CRC.c        0x00000000   Number         0  crc.o ABSOLUTE
    ..\..\Library\StdDriver\src\acmp.c       0x00000000   Number         0  acmp.o ABSOLUTE
    ..\..\Library\StdDriver\src\adc.c        0x00000000   Number         0  adc.o ABSOLUTE
    ..\..\Library\StdDriver\src\biq.c        0x00000000   Number         0  biq.o ABSOLUTE
    ..\..\Library\StdDriver\src\bod.c        0x00000000   Number         0  bod.o ABSOLUTE
    ..\..\Library\StdDriver\src\capsense.c   0x00000000   Number         0  capsense.o ABSOLUTE
    ..\..\Library\StdDriver\src\clk.c        0x00000000   Number         0  clk.o ABSOLUTE
    ..\..\Library\StdDriver\src\dpwm.c       0x00000000   Number         0  dpwm.o ABSOLUTE
    ..\..\Library\StdDriver\src\fmc.c        0x00000000   Number         0  fmc.o ABSOLUTE
    ..\..\Library\StdDriver\src\gpio.c       0x00000000   Number         0  gpio.o ABSOLUTE
    ..\..\Library\StdDriver\src\i2c.c        0x00000000   Number         0  i2c.o ABSOLUTE
    ..\..\Library\StdDriver\src\i2s.c        0x00000000   Number         0  i2s.o ABSOLUTE
    ..\..\Library\StdDriver\src\pdma.c       0x00000000   Number         0  pdma.o ABSOLUTE
    ..\..\Library\StdDriver\src\pwm.c        0x00000000   Number         0  pwm.o ABSOLUTE
    ..\..\Library\StdDriver\src\retarget.c   0x00000000   Number         0  retarget.o ABSOLUTE
    ..\..\Library\StdDriver\src\rtc.c        0x00000000   Number         0  rtc.o ABSOLUTE
    ..\..\Library\StdDriver\src\spi.c        0x00000000   Number         0  spi.o ABSOLUTE
    ..\..\Library\StdDriver\src\sys.c        0x00000000   Number         0  sys.o ABSOLUTE
    ..\..\Library\StdDriver\src\talarm.c     0x00000000   Number         0  talarm.o ABSOLUTE
    ..\..\Library\StdDriver\src\timer.c      0x00000000   Number         0  timer.o ABSOLUTE
    ..\..\Library\StdDriver\src\uart.c       0x00000000   Number         0  uart.o ABSOLUTE
    ..\..\Library\StdDriver\src\wdt.c        0x00000000   Number         0  wdt.o ABSOLUTE
    ..\..\Library\Storage\src\SPIFlash.c     0x00000000   Number         0  spiflash.o ABSOLUTE
    ..\AppCallback.c                         0x00000000   Number         0  appcallback.o ABSOLUTE
    ..\AppFunctions.c                        0x00000000   Number         0  appfunctions.o ABSOLUTE
    ..\InputKeyActions.c                     0x00000000   Number         0  inputkeyactions.o ABSOLUTE
    ..\InterruptHandler.c                    0x00000000   Number         0  interrupthandler.o ABSOLUTE
    ..\MD4App\MD4App.c                       0x00000000   Number         0  md4app.o ABSOLUTE
    ..\MD4Decode.c                           0x00000000   Number         0  md4decode.o ABSOLUTE
    ..\MicGetApp\MicGetApp.c                 0x00000000   Number         0  micgetapp.o ABSOLUTE
    ..\Powerdown.c                           0x00000000   Number         0  powerdown.o ABSOLUTE
    ..\Preload.c                             0x00000000   Number         0  preload.o ABSOLUTE
    ..\VROneCmdApp\VROneCmdApp.c             0x00000000   Number         0  vronecmdapp.o ABSOLUTE
    ..\\..\\Library\\Device\\Nuvoton\\ISD9100\\Source\\system_ISD9100.c 0x00000000   Number         0  system_isd9100.o ABSOLUTE
    ..\\..\\Library\\Framework\\src\\AudioMixer.c 0x00000000   Number         0  audiomixer.o ABSOLUTE
    ..\\..\\Library\\Framework\\src\\AudioRom.c 0x00000000   Number         0  audiorom.o ABSOLUTE
    ..\\..\\Library\\Framework\\src\\BufCtrl.c 0x00000000   Number         0  bufctrl.o ABSOLUTE
    ..\\..\\Library\\Framework\\src\\ConfigIO.c 0x00000000   Number         0  configio.o ABSOLUTE
    ..\\..\\Library\\Framework\\src\\MicSpk.c 0x00000000   Number         0  micspk.o ABSOLUTE
    ..\\..\\Library\\Framework\\src\\PdmaCtrl.c 0x00000000   Number         0  pdmactrl.o ABSOLUTE
    ..\\..\\Library\\Framework\\src\\Playback.c 0x00000000   Number         0  playback.o ABSOLUTE
    ..\\..\\Library\\Framework\\src\\Record.c 0x00000000   Number         0  record.o ABSOLUTE
    ..\\..\\Library\\Framework\\src\\SPIFlashUtil.c 0x00000000   Number         0  spiflashutil.o ABSOLUTE
    ..\\..\\Library\\Framework\\src\\SysClk.c 0x00000000   Number         0  sysclk.o ABSOLUTE
    ..\\..\\Library\\Framework\\src\\VolumeCtrl.c 0x00000000   Number         0  volumectrl.o ABSOLUTE
    ..\\..\\Library\\IO\\src\\Keypad.c       0x00000000   Number         0  keypad.o ABSOLUTE
    ..\\..\\Library\\StdDriver\\src\\CRC.c   0x00000000   Number         0  crc.o ABSOLUTE
    ..\\..\\Library\\StdDriver\\src\\acmp.c  0x00000000   Number         0  acmp.o ABSOLUTE
    ..\\..\\Library\\StdDriver\\src\\adc.c   0x00000000   Number         0  adc.o ABSOLUTE
    ..\\..\\Library\\StdDriver\\src\\biq.c   0x00000000   Number         0  biq.o ABSOLUTE
    ..\\..\\Library\\StdDriver\\src\\bod.c   0x00000000   Number         0  bod.o ABSOLUTE
    ..\\..\\Library\\StdDriver\\src\\capsense.c 0x00000000   Number         0  capsense.o ABSOLUTE
    ..\\..\\Library\\StdDriver\\src\\clk.c   0x00000000   Number         0  clk.o ABSOLUTE
    ..\\..\\Library\\StdDriver\\src\\dpwm.c  0x00000000   Number         0  dpwm.o ABSOLUTE
    ..\\..\\Library\\StdDriver\\src\\fmc.c   0x00000000   Number         0  fmc.o ABSOLUTE
    ..\\..\\Library\\StdDriver\\src\\gpio.c  0x00000000   Number         0  gpio.o ABSOLUTE
    ..\\..\\Library\\StdDriver\\src\\i2c.c   0x00000000   Number         0  i2c.o ABSOLUTE
    ..\\..\\Library\\StdDriver\\src\\i2s.c   0x00000000   Number         0  i2s.o ABSOLUTE
    ..\\..\\Library\\StdDriver\\src\\pdma.c  0x00000000   Number         0  pdma.o ABSOLUTE
    ..\\..\\Library\\StdDriver\\src\\pwm.c   0x00000000   Number         0  pwm.o ABSOLUTE
    ..\\..\\Library\\StdDriver\\src\\retarget.c 0x00000000   Number         0  retarget.o ABSOLUTE
    ..\\..\\Library\\StdDriver\\src\\rtc.c   0x00000000   Number         0  rtc.o ABSOLUTE
    ..\\..\\Library\\StdDriver\\src\\spi.c   0x00000000   Number         0  spi.o ABSOLUTE
    ..\\..\\Library\\StdDriver\\src\\sys.c   0x00000000   Number         0  sys.o ABSOLUTE
    ..\\..\\Library\\StdDriver\\src\\talarm.c 0x00000000   Number         0  talarm.o ABSOLUTE
    ..\\..\\Library\\StdDriver\\src\\timer.c 0x00000000   Number         0  timer.o ABSOLUTE
    ..\\..\\Library\\StdDriver\\src\\uart.c  0x00000000   Number         0  uart.o ABSOLUTE
    ..\\..\\Library\\StdDriver\\src\\wdt.c   0x00000000   Number         0  wdt.o ABSOLUTE
    ..\\..\\Library\\Storage\\src\\SPIFlash.c 0x00000000   Number         0  spiflash.o ABSOLUTE
    ..\\AppCallback.c                        0x00000000   Number         0  appcallback.o ABSOLUTE
    ..\\AppFunctions.c                       0x00000000   Number         0  appfunctions.o ABSOLUTE
    ..\\InputKeyActions.c                    0x00000000   Number         0  inputkeyactions.o ABSOLUTE
    ..\\InterruptHandler.c                   0x00000000   Number         0  interrupthandler.o ABSOLUTE
    ..\\MD4App\\MD4App.c                     0x00000000   Number         0  md4app.o ABSOLUTE
    ..\\MD4Decode.c                          0x00000000   Number         0  md4decode.o ABSOLUTE
    ..\\MicGetApp\\MicGetApp.c               0x00000000   Number         0  micgetapp.o ABSOLUTE
    ..\\Powerdown.c                          0x00000000   Number         0  powerdown.o ABSOLUTE
    ..\\Preload.c                            0x00000000   Number         0  preload.o ABSOLUTE
    ..\\VROneCmdApp\\VROneCmdApp.c           0x00000000   Number         0  vronecmdapp.o ABSOLUTE
    ..\\main.c                               0x00000000   Number         0  main.o ABSOLUTE
    ..\main.c                                0x00000000   Number         0  main.o ABSOLUTE
    src/BsrAli.c                             0x00000000   Number         0  BsrAli.o ABSOLUTE
    src/BsrAna.c                             0x00000000   Number         0  BsrAna.o ABSOLUTE
    src/BsrAnn.c                             0x00000000   Number         0  BsrAnn.o ABSOLUTE
    src/BsrBen.c                             0x00000000   Number         0  BsrBen.o ABSOLUTE
    src/BsrDon.c                             0x00000000   Number         0  BsrDon.o ABSOLUTE
    src/BsrEli.c                             0x00000000   Number         0  BsrEli.o ABSOLUTE
    src/BsrEva.c                             0x00000000   Number         0  BsrEva.o ABSOLUTE
    src/BsrGo.c                              0x00000000   Number         0  BsrGo.o ABSOLUTE
    src/BsrGuy.c                             0x00000000   Number         0  BsrGuy.o ABSOLUTE
    src/BsrJay.c                             0x00000000   Number         0  BsrJay.o ABSOLUTE
    src/BsrJim.c                             0x00000000   Number         0  BsrJim.o ABSOLUTE
    src/BsrJoe.c                             0x00000000   Number         0  BsrJoe.o ABSOLUTE
    src/BsrJoy.c                             0x00000000   Number         0  BsrJoy.o ABSOLUTE
    src/BsrKai.c                             0x00000000   Number         0  BsrKai.o ABSOLUTE
    src/CSpotterSDKApi.c                     0x00000000   Number         0  CSpotterSDKApi.o ABSOLUTE
    !!!main                                  0x000000c0   Section        8  __main.o(!!!main)
    !!!scatter                               0x000000c8   Section       60  __scatter.o(!!!scatter)
    !!handler_copy                           0x00000104   Section       26  __scatter_copy.o(!!handler_copy)
    !!handler_zi                             0x00000120   Section       28  __scatter_zi.o(!!handler_zi)
    .ARM.Collect$$libinit$$00000000          0x0000013c   Section        2  libinit.o(.ARM.Collect$$libinit$$00000000)
    .ARM.Collect$$libinit$$00000002          0x0000013e   Section        0  libinit2.o(.ARM.Collect$$libinit$$00000002)
    .ARM.Collect$$libinit$$00000004          0x0000013e   Section        0  libinit2.o(.ARM.Collect$$libinit$$00000004)
    .ARM.Collect$$libinit$$0000000A          0x0000013e   Section        0  libinit2.o(.ARM.Collect$$libinit$$0000000A)
    .ARM.Collect$$libinit$$0000000C          0x0000013e   Section        0  libinit2.o(.ARM.Collect$$libinit$$0000000C)
    .ARM.Collect$$libinit$$0000000E          0x0000013e   Section        0  libinit2.o(.ARM.Collect$$libinit$$0000000E)
    .ARM.Collect$$libinit$$00000011          0x0000013e   Section        0  libinit2.o(.ARM.Collect$$libinit$$00000011)
    .ARM.Collect$$libinit$$00000013          0x0000013e   Section        0  libinit2.o(.ARM.Collect$$libinit$$00000013)
    .ARM.Collect$$libinit$$00000015          0x0000013e   Section        0  libinit2.o(.ARM.Collect$$libinit$$00000015)
    .ARM.Collect$$libinit$$00000017          0x0000013e   Section        0  libinit2.o(.ARM.Collect$$libinit$$00000017)
    .ARM.Collect$$libinit$$00000019          0x0000013e   Section        0  libinit2.o(.ARM.Collect$$libinit$$00000019)
    .ARM.Collect$$libinit$$0000001B          0x0000013e   Section        0  libinit2.o(.ARM.Collect$$libinit$$0000001B)
    .ARM.Collect$$libinit$$0000001D          0x0000013e   Section        0  libinit2.o(.ARM.Collect$$libinit$$0000001D)
    .ARM.Collect$$libinit$$0000001F          0x0000013e   Section        0  libinit2.o(.ARM.Collect$$libinit$$0000001F)
    .ARM.Collect$$libinit$$00000021          0x0000013e   Section        0  libinit2.o(.ARM.Collect$$libinit$$00000021)
    .ARM.Collect$$libinit$$00000023          0x0000013e   Section        0  libinit2.o(.ARM.Collect$$libinit$$00000023)
    .ARM.Collect$$libinit$$00000025          0x0000013e   Section        0  libinit2.o(.ARM.Collect$$libinit$$00000025)
    .ARM.Collect$$libinit$$0000002C          0x0000013e   Section        0  libinit2.o(.ARM.Collect$$libinit$$0000002C)
    .ARM.Collect$$libinit$$0000002E          0x0000013e   Section        0  libinit2.o(.ARM.Collect$$libinit$$0000002E)
    .ARM.Collect$$libinit$$00000030          0x0000013e   Section        0  libinit2.o(.ARM.Collect$$libinit$$00000030)
    .ARM.Collect$$libinit$$00000032          0x0000013e   Section        0  libinit2.o(.ARM.Collect$$libinit$$00000032)
    .ARM.Collect$$libinit$$00000033          0x0000013e   Section        2  libinit2.o(.ARM.Collect$$libinit$$00000033)
    .ARM.Collect$$libshutdown$$00000000      0x00000140   Section        2  libshutdown.o(.ARM.Collect$$libshutdown$$00000000)
    .ARM.Collect$$libshutdown$$00000002      0x00000142   Section        0  libshutdown2.o(.ARM.Collect$$libshutdown$$00000002)
    .ARM.Collect$$libshutdown$$00000004      0x00000142   Section        0  libshutdown2.o(.ARM.Collect$$libshutdown$$00000004)
    .ARM.Collect$$libshutdown$$00000007      0x00000142   Section        0  libshutdown2.o(.ARM.Collect$$libshutdown$$00000007)
    .ARM.Collect$$libshutdown$$0000000A      0x00000142   Section        0  libshutdown2.o(.ARM.Collect$$libshutdown$$0000000A)
    .ARM.Collect$$libshutdown$$0000000C      0x00000142   Section        0  libshutdown2.o(.ARM.Collect$$libshutdown$$0000000C)
    .ARM.Collect$$libshutdown$$0000000F      0x00000142   Section        0  libshutdown2.o(.ARM.Collect$$libshutdown$$0000000F)
    .ARM.Collect$$libshutdown$$00000010      0x00000142   Section        2  libshutdown2.o(.ARM.Collect$$libshutdown$$00000010)
    .ARM.Collect$$rtentry$$00000000          0x00000144   Section        0  __rtentry.o(.ARM.Collect$$rtentry$$00000000)
    .ARM.Collect$$rtentry$$00000002          0x00000144   Section        0  __rtentry2.o(.ARM.Collect$$rtentry$$00000002)
    .ARM.Collect$$rtentry$$00000004          0x00000144   Section        6  __rtentry4.o(.ARM.Collect$$rtentry$$00000004)
    .ARM.Collect$$rtentry$$00000009          0x0000014a   Section        0  __rtentry2.o(.ARM.Collect$$rtentry$$00000009)
    .ARM.Collect$$rtentry$$0000000A          0x0000014a   Section        4  __rtentry2.o(.ARM.Collect$$rtentry$$0000000A)
    .ARM.Collect$$rtentry$$0000000C          0x0000014e   Section        0  __rtentry2.o(.ARM.Collect$$rtentry$$0000000C)
    .ARM.Collect$$rtentry$$0000000D          0x0000014e   Section        8  __rtentry2.o(.ARM.Collect$$rtentry$$0000000D)
    .ARM.Collect$$rtexit$$00000000           0x00000156   Section        2  rtexit.o(.ARM.Collect$$rtexit$$00000000)
    .ARM.Collect$$rtexit$$00000002           0x00000158   Section        0  rtexit2.o(.ARM.Collect$$rtexit$$00000002)
    .ARM.Collect$$rtexit$$00000003           0x00000158   Section        4  rtexit2.o(.ARM.Collect$$rtexit$$00000003)
    .ARM.Collect$$rtexit$$00000004           0x0000015c   Section        6  rtexit2.o(.ARM.Collect$$rtexit$$00000004)
    .emb_text                                0x00000164   Section       56  rt_memcpy.o(.emb_text)
    .text                                    0x0000019c   Section       96  startup_isd9100.o(.text)
    Default_Handler                          0x000001c3   Thumb Code     2  startup_isd9100.o(.text)
    .text                                    0x000001fc   Section        0  rt_memclr.o(.text)
    .text                                    0x0000023c   Section      488  aeabi_sdivfast.o(.text)
    .text                                    0x00000424   Section        0  heapauxi.o(.text)
    .text                                    0x0000042a   Section       62  sys_stackheap_outer.o(.text)
    .text                                    0x00000468   Section        0  exit.o(.text)
    .text                                    0x00000478   Section        8  libspace.o(.text)
    .text                                    0x00000480   Section        0  sys_exit.o(.text)
    .text                                    0x0000048c   Section        2  use_no_semi.o(.text)
    .text                                    0x0000048e   Section        0  indicate_semi.o(.text)
    i.ADC_EnableMICBias                      0x00000490   Section        0  adc.o(i.ADC_EnableMICBias)
    i.ADC_Open                               0x000004a0   Section        0  adc.o(i.ADC_Open)
    i.ADC_SetAMUX                            0x000004a4   Section        0  adc.o(i.ADC_SetAMUX)
    i.ADC_SetPGAGaindB                       0x000004f0   Section        0  adc.o(i.ADC_SetPGAGaindB)
    i.App_Initiate                           0x00000528   Section        0  appfunctions.o(i.App_Initiate)
    i.App_Process                            0x0000056c   Section        0  appfunctions.o(i.App_Process)
    i.App_StartRecognize                     0x000007a0   Section        0  appfunctions.o(i.App_StartRecognize)
    i.BIQFilter_Setting                      0x000007c4   Section        0  micspk.o(i.BIQFilter_Setting)
    BIQFilter_Setting                        0x000007c5   Thumb Code    40  micspk.o(i.BIQFilter_Setting)
    i.BIQ_Reset                              0x000007f4   Section        0  biq.o(i.BIQ_Reset)
    i.BIQ_SetCoeff                           0x00000810   Section        0  biq.o(i.BIQ_SetCoeff)
    i.BsrAbby                                0x00000854   Section        0  BsrJoe.o(i.BsrAbby)
    i.BsrAbel                                0x00000880   Section        0  BsrJoe.o(i.BsrAbel)
    i.BsrAdam                                0x000008fe   Section        0  BsrJoe.o(i.BsrAdam)
    i.BsrAlma                                0x000009c6   Section        0  BsrDon.o(i.BsrAlma)
    i.BsrAmir                                0x00000a98   Section        0  BsrDon.o(i.BsrAmir)
    i.BsrAmos                                0x00000ab0   Section        0  BsrDon.o(i.BsrAmos)
    i.BsrAna                                 0x00000bd6   Section        0  BsrJim.o(i.BsrAna)
    i.BsrAnna                                0x00000c00   Section        0  BsrDon.o(i.BsrAnna)
    i.BsrAnne                                0x00000c26   Section        0  BsrDon.o(i.BsrAnne)
    i.BsrAnnie                               0x00000c3e   Section        0  BsrDon.o(i.BsrAnnie)
    i.BsrAri                                 0x00000c5c   Section        0  BsrJim.o(i.BsrAri)
    i.BsrAsa                                 0x00000d0c   Section        0  BsrJim.o(i.BsrAsa)
    i.BsrAvea                                0x00000e00   Section        0  BsrJim.o(i.BsrAvea)
    i.BsrAyla                                0x00000eaa   Section        0  BsrDon.o(i.BsrAyla)
    i.BsrBaby                                0x00000ec4   Section        0  BsrDon.o(i.BsrBaby)
    i.BsrBen                                 0x00000ed2   Section        0  BsrJim.o(i.BsrBen)
    BsrBen                                   0x00000ed3   Thumb Code   172  BsrJim.o(i.BsrBen)
    i.BsrBrad                                0x00000f80   Section        0  BsrBen.o(i.BsrBrad)
    i.BsrBret                                0x00000fbc   Section        0  BsrJay.o(i.BsrBret)
    BsrBret                                  0x00000fbd   Thumb Code   324  BsrJay.o(i.BsrBret)
    i.BsrCade                                0x0000110c   Section        0  BsrJay.o(i.BsrCade)
    i.BsrCadea                               0x00001298   Section        0  BsrJay.o(i.BsrCadea)
    i.BsrCale                                0x0000139c   Section        0  BsrJay.o(i.BsrCale)
    i.BsrCara                                0x000013e0   Section        0  BsrJay.o(i.BsrCara)
    i.BsrCarae                               0x000017c8   Section        0  BsrJay.o(i.BsrCarae)
    i.BsrChad                                0x00001894   Section        0  BsrJay.o(i.BsrChad)
    i.BsrChada                               0x00001950   Section        0  BsrJay.o(i.BsrChada)
    i.BsrChaz                                0x00001998   Section        0  BsrJay.o(i.BsrChaz)
    i.BsrChaza                               0x00001a78   Section        0  BsrJay.o(i.BsrChaza)
    i.BsrChaze                               0x00001b34   Section        0  BsrJay.o(i.BsrChaze)
    i.BsrChazi                               0x00001c04   Section        0  BsrJay.o(i.BsrChazi)
    i.BsrClay                                0x00001cd4   Section        0  BsrJay.o(i.BsrClay)
    i.BsrCory                                0x0000223c   Section        0  BsrJoy.o(i.BsrCory)
    i.BsrCoty                                0x00002428   Section        0  BsrJoy.o(i.BsrCoty)
    i.BsrDan                                 0x0000244c   Section        0  BsrJim.o(i.BsrDan)
    i.BsrDane                                0x000024a4   Section        0  BsrJoy.o(i.BsrDane)
    i.BsrDawn                                0x000024ac   Section        0  BsrJoy.o(i.BsrDawn)
    i.BsrDeja                                0x000024b4   Section        0  BsrJoy.o(i.BsrDeja)
    i.BsrDemi                                0x00002520   Section        0  BsrJoy.o(i.BsrDemi)
    i.BsrDeon                                0x000026a0   Section        0  BsrJoy.o(i.BsrDeon)
    i.BsrDina                                0x00002816   Section        0  BsrJoy.o(i.BsrDina)
    i.BsrDion                                0x00002a60   Section        0  BsrJoy.o(i.BsrDion)
    i.BsrEden                                0x00002b3c   Section        0  BsrEva.o(i.BsrEden)
    i.BsrEli                                 0x00002ca0   Section        0  BsrJim.o(i.BsrEli)
    i.BsrElla                                0x00002cf8   Section        0  BsrEva.o(i.BsrElla)
    i.BsrElsa                                0x00002ea8   Section        0  BsrEva.o(i.BsrElsa)
    i.BsrEmma                                0x00003020   Section        0  BsrEli.o(i.BsrEmma)
    i.BsrEric                                0x000030f8   Section        0  BsrEli.o(i.BsrEric)
    i.BsrErica                               0x0000317c   Section        0  BsrEli.o(i.BsrErica)
    i.BsrErik                                0x000032b8   Section        0  BsrEli.o(i.BsrErik)
    i.BsrErin                                0x000032e6   Section        0  BsrEli.o(i.BsrErin)
    i.BsrEva                                 0x000033cc   Section        0  BsrJim.o(i.BsrEva)
    i.BsrEvan                                0x000033ee   Section        0  BsrEli.o(i.BsrEvan)
    i.BsrGary                                0x00003428   Section        0  BsrAna.o(i.BsrGary)
    i.BsrGreg                                0x000034e8   Section        0  BsrAnn.o(i.BsrGreg)
    i.BsrGuy                                 0x000036b4   Section        0  BsrJim.o(i.BsrGuy)
    i.BsrHugo                                0x000036ec   Section        0  BsrGuy.o(i.BsrHugo)
    i.BsrIris                                0x0000379c   Section        0  BsrGuy.o(i.BsrIris)
    i.BsrIrma                                0x000037d4   Section        0  BsrGuy.o(i.BsrIrma)
    i.BsrIsai                                0x00003828   Section        0  BsrGuy.o(i.BsrIsai)
    i.BsrIvy                                 0x00003856   Section        0  BsrJim.o(i.BsrIvy)
    i.BsrJamii                               0x00003912   Section        0  BsrJoy.o(i.BsrJamii)
    BsrJamii                                 0x00003913   Thumb Code   226  BsrJoy.o(i.BsrJamii)
    i.BsrJan                                 0x000039f4   Section        0  BsrJim.o(i.BsrJan)
    i.BsrJeni                                0x00003a0c   Section        0  BsrJay.o(i.BsrJeni)
    BsrJeni                                  0x00003a0d   Thumb Code   390  BsrJay.o(i.BsrJeni)
    i.BsrJoan                                0x00003b98   Section        0  BsrKai.o(i.BsrJoan)
    BsrJoan                                  0x00003b99   Thumb Code   366  BsrKai.o(i.BsrJoan)
    i.BsrJohn                                0x00003d06   Section        0  BsrAli.o(i.BsrJohn)
    i.BsrJose                                0x00003d30   Section        0  BsrAli.o(i.BsrJose)
    i.BsrJosh                                0x00003d66   Section        0  BsrAli.o(i.BsrJosh)
    i.BsrJoyci                               0x00003e0c   Section        0  BsrJim.o(i.BsrJoyci)
    i.BsrJuanitez                            0x00003eec   Section        0  BsrEva.o(i.BsrJuanitez)
    BsrJuanitez                              0x00003eed   Thumb Code    52  BsrEva.o(i.BsrJuanitez)
    i.BsrLei                                 0x00003f20   Section        0  BsrJim.o(i.BsrLei)
    i.BsrMaxi                                0x00003f38   Section        0  BsrJim.o(i.BsrMaxi)
    i.BsrMichael                             0x00003fb2   Section        0  BsrJim.o(i.BsrMichael)
    i.BsrMichelle                            0x00004528   Section        0  BsrJim.o(i.BsrMichelle)
    i.BsrMike                                0x00004530   Section        0  BsrJim.o(i.BsrMike)
    i.BsrMya                                 0x000045dc   Section        0  BsrKai.o(i.BsrMya)
    i.BsrNia                                 0x00004664   Section        0  BsrKai.o(i.BsrNia)
    i.BsrRay                                 0x00004696   Section        0  BsrKai.o(i.BsrRay)
    i.BsrRex                                 0x000047cc   Section        0  BsrKai.o(i.BsrRex)
    i.BsrRey                                 0x000047de   Section        0  BsrKai.o(i.BsrRey)
    i.BsrRon                                 0x000047ee   Section        0  BsrKai.o(i.BsrRon)
    i.BsrRoy                                 0x00004c90   Section        0  BsrKai.o(i.BsrRoy)
    i.BsrTed                                 0x00004cbc   Section        0  BsrKai.o(i.BsrTed)
    i.BsrTia                                 0x00004ccc   Section        0  BsrKai.o(i.BsrTia)
    i.BsrTom                                 0x00004d34   Section        0  BsrKai.o(i.BsrTom)
    i.BsrTop                                 0x00004dc6   Section        0  BsrKai.o(i.BsrTop)
    i.BsrTre                                 0x00004e24   Section        0  BsrKai.o(i.BsrTre)
    i.BsrZoe                                 0x00004e36   Section        0  BsrJoe.o(i.BsrZoe)
    i.BufCtrl_UpdateReadWithCount            0x00004e3a   Section        0  bufctrl.o(i.BufCtrl_UpdateReadWithCount)
    i.BufCtrl_UpdateWriteWithCount           0x00004e58   Section        0  bufctrl.o(i.BufCtrl_UpdateWriteWithCount)
    i.CAPS_IRQHandler                        0x00004e78   Section        0  interrupthandler.o(i.CAPS_IRQHandler)
    i.CLK_EnableLDO                          0x00004e88   Section        0  clk.o(i.CLK_EnableLDO)
    i.CLK_EnableModuleClock                  0x00004ebc   Section        0  clk.o(i.CLK_EnableModuleClock)
    i.CLK_EnableXtalRC                       0x00004ed8   Section        0  clk.o(i.CLK_EnableXtalRC)
    i.CLK_GetHCLKFreq                        0x00004ef4   Section        0  clk.o(i.CLK_GetHCLKFreq)
    i.CLK_SetHCLK                            0x00004f04   Section        0  clk.o(i.CLK_SetHCLK)
    i.CLK_SetModuleClock                     0x00004f40   Section        0  clk.o(i.CLK_SetModuleClock)
    i.CSpotter_AddSample                     0x00004f90   Section        0  CSpotterSDKApi.o(i.CSpotter_AddSample)
    i.CSpotter_GetMemoryUsage_MultiWithSpeakerAndExtRejModel 0x00004ff4   Section        0  CSpotterSDKApi.o(i.CSpotter_GetMemoryUsage_MultiWithSpeakerAndExtRejModel)
    i.CSpotter_GetMemoryUsage_Sep            0x000050b0   Section        0  CSpotterSDKApi.o(i.CSpotter_GetMemoryUsage_Sep)
    i.CSpotter_GetResult                     0x000050c8   Section        0  CSpotterSDKApi.o(i.CSpotter_GetResult)
    i.CSpotter_Init_MultiWithExtRejModel     0x000050ec   Section        0  CSpotterSDKApi.o(i.CSpotter_Init_MultiWithExtRejModel)
    i.CSpotter_Init_Sep                      0x000052f0   Section        0  CSpotterSDKApi.o(i.CSpotter_Init_Sep)
    i.CSpotter_Reset                         0x00005314   Section        0  CSpotterSDKApi.o(i.CSpotter_Reset)
    i.DPWM_Open                              0x00005348   Section        0  dpwm.o(i.DPWM_Open)
    i.GPAB_IRQHandler                        0x0000534c   Section        0  interrupthandler.o(i.GPAB_IRQHandler)
    i.GPIO_SetMode                           0x00005368   Section        0  gpio.o(i.GPIO_SetMode)
    i.MD4App_DecodeProcess                   0x00005390   Section        0  md4app.o(i.MD4App_DecodeProcess)
    i.MD4_CheckResLdr                        0x00005418   Section        0  md4decode.o(i.MD4_CheckResLdr)
    MD4_CheckResLdr                          0x00005419   Thumb Code    32  md4decode.o(i.MD4_CheckResLdr)
    i.MD4_DecodeFrame                        0x00005438   Section        0  md4decode.o(i.MD4_DecodeFrame)
    MD4_DecodeFrame                          0x00005439   Thumb Code   190  md4decode.o(i.MD4_DecodeFrame)
    i.MD4_DecodeIsEnd                        0x00005500   Section        0  md4decode.o(i.MD4_DecodeIsEnd)
    i.MD4_DecodeProcess                      0x00005516   Section        0  md4decode.o(i.MD4_DecodeProcess)
    i.MIC_ChangeSR                           0x00005618   Section        0  micspk.o(i.MIC_ChangeSR)
    i.MIC_Open                               0x00005698   Section        0  micspk.o(i.MIC_Open)
    i.MIC_Start                              0x0000574c   Section        0  micspk.o(i.MIC_Start)
    i.MicGetApp_Initiate                     0x00005758   Section        0  micgetapp.o(i.MicGetApp_Initiate)
    i.MicGetApp_ProcessRec                   0x0000576e   Section        0  micgetapp.o(i.MicGetApp_ProcessRec)
    i.MicGetApp_StartRec                     0x00005796   Section        0  micgetapp.o(i.MicGetApp_StartRec)
    i.NINJA_API_1                            0x000057be   Section        0  BsrGo.o(i.NINJA_API_1)
    i.NINJA_API_11                           0x00005824   Section        0  BsrGo.o(i.NINJA_API_11)
    i.NINJA_API_13                           0x00005aa4   Section        0  BsrGo.o(i.NINJA_API_13)
    i.NINJA_API_15                           0x00005c14   Section        0  BsrGo.o(i.NINJA_API_15)
    i.NINJA_API_19                           0x00005c32   Section        0  BsrGo.o(i.NINJA_API_19)
    i.NINJA_API_2                            0x00005c50   Section        0  BsrGo.o(i.NINJA_API_2)
    i.NINJA_API_23                           0x00005c78   Section        0  BsrGo.o(i.NINJA_API_23)
    i.NINJA_API_26                           0x00005c9e   Section        0  BsrGo.o(i.NINJA_API_26)
    i.NINJA_API_3                            0x00005cce   Section        0  BsrGo.o(i.NINJA_API_3)
    i.NINJA_API_47                           0x00005cf2   Section        0  BsrGo.o(i.NINJA_API_47)
    i.NINJA_API_48                           0x00005d62   Section        0  BsrGo.o(i.NINJA_API_48)
    i.NINJA_API_55                           0x00005de0   Section        0  BsrGo.o(i.NINJA_API_55)
    i.NINJA_API_56                           0x00005e1c   Section        0  BsrGo.o(i.NINJA_API_56)
    i.NINJA_API_73                           0x00005e48   Section        0  BsrGo.o(i.NINJA_API_73)
    i.NINJA_API_75                           0x00006228   Section        0  BsrGo.o(i.NINJA_API_75)
    i.NVIC_EnableIRQ                         0x000062dc   Section        0  main.o(i.NVIC_EnableIRQ)
    NVIC_EnableIRQ                           0x000062dd   Thumb Code    14  main.o(i.NVIC_EnableIRQ)
    i.OutputPin_Initiate                     0x000062f0   Section        0  configio.o(i.OutputPin_Initiate)
    i.PDMA_DisableInt                        0x00006320   Section        0  pdma.o(i.PDMA_DisableInt)
    i.PDMA_EnableInt                         0x00006334   Section        0  pdma.o(i.PDMA_EnableInt)
    i.PDMA_IRQHandler                        0x00006348   Section        0  interrupthandler.o(i.PDMA_IRQHandler)
    i.PDMA_Open                              0x00006380   Section        0  pdma.o(i.PDMA_Open)
    i.PDMA_SetTransferAddr                   0x00006390   Section        0  pdma.o(i.PDMA_SetTransferAddr)
    i.PDMA_SetTransferCnt                    0x000063b0   Section        0  pdma.o(i.PDMA_SetTransferCnt)
    i.PDMA_SetTransferDirection              0x000063e8   Section        0  pdma.o(i.PDMA_SetTransferDirection)
    i.PDMA_SetTransferMode                   0x00006400   Section        0  pdma.o(i.PDMA_SetTransferMode)
    i.PDMA_Trigger                           0x00006498   Section        0  pdma.o(i.PDMA_Trigger)
    i.PWM0_IRQHandler                        0x000064b0   Section        0  main.o(i.PWM0_IRQHandler)
    i.PWM_ClearIntFlag                       0x000064fc   Section        0  pwm.o(i.PWM_ClearIntFlag)
    i.PWM_ConfigOutputChannel                0x00006504   Section        0  pwm.o(i.PWM_ConfigOutputChannel)
    i.PWM_DisableDeadZone                    0x0000662c   Section        0  pwm.o(i.PWM_DisableDeadZone)
    i.PWM_EnableOutput                       0x0000663a   Section        0  pwm.o(i.PWM_EnableOutput)
    i.PWM_GetIntFlag                         0x00006642   Section        0  pwm.o(i.PWM_GetIntFlag)
    i.PWM_Start                              0x00006650   Section        0  pwm.o(i.PWM_Start)
    i.PdmaCtrl_Init                          0x00006678   Section        0  pdmactrl.o(i.PdmaCtrl_Init)
    i.PdmaCtrl_Open                          0x0000669c   Section        0  pdmactrl.o(i.PdmaCtrl_Open)
    i.PdmaCtrl_Start                         0x00006728   Section        0  pdmactrl.o(i.PdmaCtrl_Start)
    i.PdmaCtrl_Stop                          0x00006768   Section        0  pdmactrl.o(i.PdmaCtrl_Stop)
    i.Playback_Initiate                      0x0000677c   Section        0  playback.o(i.Playback_Initiate)
    i.Playback_Process                       0x00006788   Section        0  playback.o(i.Playback_Process)
    i.Playback_Remove                        0x00006854   Section        0  playback.o(i.Playback_Remove)
    i.Playback_ResetChannelVolume            0x00006874   Section        0  playback.o(i.Playback_ResetChannelVolume)
    i.Playback_StopPlay                      0x00006888   Section        0  playback.o(i.Playback_StopPlay)
    i.RTC_IRQHandler                         0x000068d4   Section        0  interrupthandler.o(i.RTC_IRQHandler)
    i.Record_Add                             0x000068d8   Section        0  record.o(i.Record_Add)
    i.Record_Process                         0x000068f0   Section        0  record.o(i.Record_Process)
    i.Record_SetInBufRecord                  0x00006934   Section        0  record.o(i.Record_SetInBufRecord)
    i.Record_StartRec                        0x00006958   Section        0  record.o(i.Record_StartRec)
    i.SPIFlash_3ByteAddr_Cmd                 0x000069a0   Section        0  spiflash.o(i.SPIFlash_3ByteAddr_Cmd)
    i.SPIFlash_Read                          0x000069d0   Section        0  spiflash.o(i.SPIFlash_Read)
    i.SPIFlash_ReadData                      0x000069ee   Section        0  spiflash.o(i.SPIFlash_ReadData)
    i.SPIFlash_ReadDataCallback              0x00006ac4   Section        0  appcallback.o(i.SPIFlash_ReadDataCallback)
    i.SPIFlash_ReadEnd                       0x00006adc   Section        0  spiflash.o(i.SPIFlash_ReadEnd)
    i.SPIFlash_ReadStart                     0x00006af4   Section        0  spiflash.o(i.SPIFlash_ReadStart)
    i.SPK_Open                               0x00006b44   Section        0  micspk.o(i.SPK_Open)
    i.SPK_Stop                               0x00006b8c   Section        0  micspk.o(i.SPK_Stop)
    i.SYS_Lock                               0x00006b9c   Section        0  sys.o(i.SYS_Lock)
    i.SYS_ResetModule                        0x00006bac   Section        0  sys.o(i.SYS_ResetModule)
    i.SYS_Unlock                             0x00006bc8   Section        0  sys.o(i.SYS_Unlock)
    i.SendCMD                                0x00006bf4   Section        0  appfunctions.o(i.SendCMD)
    i.SendCMD1time                           0x00006c1c   Section        0  appfunctions.o(i.SendCMD1time)
    i.SendCMDByteTimer                       0x00006c40   Section        0  appfunctions.o(i.SendCMDByteTimer)
    i.SendCMDNULL                            0x00006cb8   Section        0  appfunctions.o(i.SendCMDNULL)
    i.SysClk_InitiateRC                      0x00006d24   Section        0  sysclk.o(i.SysClk_InitiateRC)
    i.SystemCoreClockUpdate                  0x00006d78   Section        0  system_isd9100.o(i.SystemCoreClockUpdate)
    i.TIMER_GetModuleClock                   0x00006dc8   Section        0  timer.o(i.TIMER_GetModuleClock)
    i.TIMER_Open                             0x00006e20   Section        0  timer.o(i.TIMER_Open)
    i.TMR0_IRQHandler                        0x00006e80   Section        0  main.o(i.TMR0_IRQHandler)
    i.TMR1_IRQHandler                        0x00006f18   Section        0  main.o(i.TMR1_IRQHandler)
    i.UART0_IRQHandler                       0x00006f7c   Section        0  main.o(i.UART0_IRQHandler)
    i.UART_ClearIntFlag                      0x00006fe4   Section        0  uart.o(i.UART_ClearIntFlag)
    i.UART_Init                              0x0000701c   Section        0  main.o(i.UART_Init)
    i.UART_Open                              0x00007090   Section        0  uart.o(i.UART_Open)
    i.UserEvent_ProcessCallback              0x000070ec   Section        0  appcallback.o(i.UserEvent_ProcessCallback)
    i.VROneCmdApp_GetCMDID                   0x000070f0   Section        0  vronecmdapp.o(i.VROneCmdApp_GetCMDID)
    i.VROneCmdApp_Initiate                   0x0000711a   Section        0  vronecmdapp.o(i.VROneCmdApp_Initiate)
    i.VROneCmdApp_UnpackBin                  0x00007162   Section        0  vronecmdapp.o(i.VROneCmdApp_UnpackBin)
    i.VolumeCtrl_Reset                       0x0000719a   Section        0  volumectrl.o(i.VolumeCtrl_Reset)
    i.VolumeCtrl_VolumeFade                  0x000071b0   Section        0  volumectrl.o(i.VolumeCtrl_VolumeFade)
    i.WDT_IRQHandler                         0x000071d4   Section        0  interrupthandler.o(i.WDT_IRQHandler)
    i.__ARM_common_switch8                   0x000071d6   Section        0  appfunctions.o(i.__ARM_common_switch8)
    i.delayms                                0x000071f0   Section        0  appfunctions.o(i.delayms)
    i.main                                   0x00007214   Section        0  main.o(i.main)
    i.pwm_init                               0x00007260   Section        0  main.o(i.pwm_init)
    i.time_init                              0x00007328   Section        0  main.o(i.time_init)
    i.uart_rev_task                          0x000073ac   Section        0  main.o(i.uart_rev_task)
    .constdata                               0x000073c8   Section       16  appcallback.o(.constdata)
    .constdata                               0x000073d8   Section       68  micspk.o(.constdata)
    .constdata                               0x0000741c   Section       26  volumectrl.o(.constdata)
    .constdata                               0x00007438   Section      168  pwm.o(.constdata)
    .constdata                               0x000074e0   Section       20  timer.o(.constdata)
    .constdata                               0x000074f4   Section       48  md4decode.o(.constdata)
    .constdata                               0x00007524   Section     2324  BsrGo.o(.constdata)
    BSR_1                                    0x00007524   Data          80  BsrGo.o(.constdata)
    BsrLori                                  0x00007574   Data        2180  BsrGo.o(.constdata)
    BsrLori_1                                0x00007df8   Data          64  BsrGo.o(.constdata)
    .constdata                               0x00007e38   Section     2048  BsrBen.o(.constdata)
    BsrKade                                  0x00007e38   Data        2048  BsrBen.o(.constdata)
    .constdata                               0x00008638   Section      100  BsrEli.o(.constdata)
    BsrKory                                  0x00008638   Data         100  BsrEli.o(.constdata)
    .constdata                               0x0000869c   Section        9  BsrJoy.o(.constdata)
    BsrJudy                                  0x0000869c   Data           9  BsrJoy.o(.constdata)
    .constdata                               0x000086a6   Section      644  BsrAna.o(.constdata)
    BsrKala                                  0x000086a6   Data         644  BsrAna.o(.constdata)
    .constdata                               0x0000892a   Section     1028  BsrAnn.o(.constdata)
    BsrKira                                  0x0000892a   Data         258  BsrAnn.o(.constdata)
    BsrKirk                                  0x00008a2c   Data         258  BsrAnn.o(.constdata)
    BsrKobe                                  0x00008b2e   Data         512  BsrAnn.o(.constdata)
    .constdata                               0x00008d30   Section      512  BsrGuy.o(.constdata)
    BsrKyla                                  0x00008d30   Data         512  BsrGuy.o(.constdata)
    .data                                    0x20000000   Section       24  main.o(.data)
    time_10ms                                0x20000005   Data           1  main.o(.data)
    ll                                       0x20000006   Data           1  main.o(.data)
    time_1p25ms                              0x20000007   Data           1  main.o(.data)
    time_0p5ms                               0x20000008   Data           1  main.o(.data)
    time_150ms                               0x20000009   Data           1  main.o(.data)
    tt                                       0x2000000c   Data           2  main.o(.data)
    g_pUART                                  0x20000010   Data           4  main.o(.data)
    fanstatline                              0x20000014   Data           4  main.o(.data)
    .data                                    0x20000018   Section        1  main.o(.data)
    .data                                    0x20000019   Section        1  main.o(.data)
    .data                                    0x2000001a   Section        5  appfunctions.o(.data)
    re_data                                  0x2000001b   Data           4  appfunctions.o(.data)
    .data                                    0x20000020   Section       28  system_isd9100.o(.data)
    .data                                    0x2000003c   Section       12  playback.o(.data)
    s_u8PlayCtrl                             0x2000003c   Data           1  playback.o(.data)
    s_u8FlaushCnt                            0x2000003d   Data           1  playback.o(.data)
    .data                                    0x20000048   Section        8  volumectrl.o(.data)
    .data                                    0x20000050   Section        8  record.o(.data)
    s_pi16AdcBuf                             0x20000050   Data           4  record.o(.data)
    .bss                                     0x20000058   Section      164  main.o(.bss)
    .bss                                     0x200000fc   Section     9984  main.o(.bss)
    .bss                                     0x200027fc   Section       32  interrupthandler.o(.bss)
    .bss                                     0x2000281c   Section       96  libspace.o(.bss)
    HEAP                                     0x20002880   Section      512  startup_isd9100.o(HEAP)
    Heap_Mem                                 0x20002880   Data         512  startup_isd9100.o(HEAP)
    STACK                                    0x20002a80   Section     1024  startup_isd9100.o(STACK)
    Stack_Mem                                0x20002a80   Data        1024  startup_isd9100.o(STACK)
    __initial_sp                             0x20002e80   Data           0  startup_isd9100.o(STACK)

    Global Symbols

    Symbol Name                              Value     Ov Type        Size  Object(Section)

    BuildAttributes$$THM_ISAv3M$S$PE$A:L22$X:L11$S22$IEEE1$IW$USESV6$~STKCKD$USESV7$~SHL$OTIME$ROPI$EBA8$UX$STANDARDLIB$REQ8$PRES8$EABIv2 0x00000000   Number         0  anon$$obj.o ABSOLUTE
    __ARM_use_no_argv                        0x00000000   Number         0  main.o ABSOLUTE
    __Vectors                                0x00000000   Data           4  startup_isd9100.o(RESET)
    _printf_flags                            0x00000000   Number         0  printf_stubs.o ABSOLUTE
    _printf_return_value                     0x00000000   Number         0  printf_stubs.o ABSOLUTE
    _printf_sizespec                         0x00000000   Number         0  printf_stubs.o ABSOLUTE
    _printf_widthprec                        0x00000000   Number         0  printf_stubs.o ABSOLUTE
    __ARM_exceptions_init                     - Undefined Weak Reference
    __alloca_initialize                       - Undefined Weak Reference
    __arm_preinit_                            - Undefined Weak Reference
    __cpp_initialize__aeabi_                  - Undefined Weak Reference
    __cxa_finalize                            - Undefined Weak Reference
    __rt_locale                               - Undefined Weak Reference
    __sigvec_lookup                           - Undefined Weak Reference
    _atexit_init                              - Undefined Weak Reference
    _call_atexit_fns                          - Undefined Weak Reference
    _clock_init                               - Undefined Weak Reference
    _fp_trap_init                             - Undefined Weak Reference
    _fp_trap_shutdown                         - Undefined Weak Reference
    _get_lc_collate                           - Undefined Weak Reference
    _get_lc_ctype                             - Undefined Weak Reference
    _get_lc_monetary                          - Undefined Weak Reference
    _get_lc_numeric                           - Undefined Weak Reference
    _get_lc_time                              - Undefined Weak Reference
    _getenv_init                              - Undefined Weak Reference
    _handle_redirection                       - Undefined Weak Reference
    _init_alloc                               - Undefined Weak Reference
    _init_user_alloc                          - Undefined Weak Reference
    _initio                                   - Undefined Weak Reference
    _printf_post_padding                      - Undefined Weak Reference
    _printf_pre_padding                       - Undefined Weak Reference
    _printf_truncate_unsigned                 - Undefined Weak Reference
    _rand_init                                - Undefined Weak Reference
    _signal_finish                            - Undefined Weak Reference
    _signal_init                              - Undefined Weak Reference
    _terminate_alloc                          - Undefined Weak Reference
    _terminate_user_alloc                     - Undefined Weak Reference
    _terminateio                              - Undefined Weak Reference
    __main                                   0x000000c1   Thumb Code     8  __main.o(!!!main)
    __scatterload                            0x000000c9   Thumb Code     0  __scatter.o(!!!scatter)
    __scatterload_rt2                        0x000000c9   Thumb Code    52  __scatter.o(!!!scatter)
    __scatterload_rt2_thumb_only             0x000000c9   Thumb Code     0  __scatter.o(!!!scatter)
    __scatterload_null                       0x000000d9   Thumb Code     0  __scatter.o(!!!scatter)
    __scatterload_copy                       0x00000105   Thumb Code    26  __scatter_copy.o(!!handler_copy)
    __scatterload_zeroinit                   0x00000121   Thumb Code    28  __scatter_zi.o(!!handler_zi)
    __rt_lib_init                            0x0000013d   Thumb Code     0  libinit.o(.ARM.Collect$$libinit$$00000000)
    __rt_lib_init_alloca_1                   0x0000013f   Thumb Code     0  libinit2.o(.ARM.Collect$$libinit$$0000002E)
    __rt_lib_init_argv_1                     0x0000013f   Thumb Code     0  libinit2.o(.ARM.Collect$$libinit$$0000002C)
    __rt_lib_init_atexit_1                   0x0000013f   Thumb Code     0  libinit2.o(.ARM.Collect$$libinit$$0000001B)
    __rt_lib_init_clock_1                    0x0000013f   Thumb Code     0  libinit2.o(.ARM.Collect$$libinit$$00000021)
    __rt_lib_init_cpp_1                      0x0000013f   Thumb Code     0  libinit2.o(.ARM.Collect$$libinit$$00000032)
    __rt_lib_init_exceptions_1               0x0000013f   Thumb Code     0  libinit2.o(.ARM.Collect$$libinit$$00000030)
    __rt_lib_init_fp_1                       0x0000013f   Thumb Code     0  libinit2.o(.ARM.Collect$$libinit$$00000002)
    __rt_lib_init_fp_trap_1                  0x0000013f   Thumb Code     0  libinit2.o(.ARM.Collect$$libinit$$0000001F)
    __rt_lib_init_getenv_1                   0x0000013f   Thumb Code     0  libinit2.o(.ARM.Collect$$libinit$$00000023)
    __rt_lib_init_heap_1                     0x0000013f   Thumb Code     0  libinit2.o(.ARM.Collect$$libinit$$0000000A)
    __rt_lib_init_lc_collate_1               0x0000013f   Thumb Code     0  libinit2.o(.ARM.Collect$$libinit$$00000011)
    __rt_lib_init_lc_ctype_1                 0x0000013f   Thumb Code     0  libinit2.o(.ARM.Collect$$libinit$$00000013)
    __rt_lib_init_lc_monetary_1              0x0000013f   Thumb Code     0  libinit2.o(.ARM.Collect$$libinit$$00000015)
    __rt_lib_init_lc_numeric_1               0x0000013f   Thumb Code     0  libinit2.o(.ARM.Collect$$libinit$$00000017)
    __rt_lib_init_lc_time_1                  0x0000013f   Thumb Code     0  libinit2.o(.ARM.Collect$$libinit$$00000019)
    __rt_lib_init_preinit_1                  0x0000013f   Thumb Code     0  libinit2.o(.ARM.Collect$$libinit$$00000004)
    __rt_lib_init_rand_1                     0x0000013f   Thumb Code     0  libinit2.o(.ARM.Collect$$libinit$$0000000E)
    __rt_lib_init_return                     0x0000013f   Thumb Code     0  libinit2.o(.ARM.Collect$$libinit$$00000033)
    __rt_lib_init_signal_1                   0x0000013f   Thumb Code     0  libinit2.o(.ARM.Collect$$libinit$$0000001D)
    __rt_lib_init_stdio_1                    0x0000013f   Thumb Code     0  libinit2.o(.ARM.Collect$$libinit$$00000025)
    __rt_lib_init_user_alloc_1               0x0000013f   Thumb Code     0  libinit2.o(.ARM.Collect$$libinit$$0000000C)
    __rt_lib_shutdown                        0x00000141   Thumb Code     0  libshutdown.o(.ARM.Collect$$libshutdown$$00000000)
    __rt_lib_shutdown_cpp_1                  0x00000143   Thumb Code     0  libshutdown2.o(.ARM.Collect$$libshutdown$$00000002)
    __rt_lib_shutdown_fp_trap_1              0x00000143   Thumb Code     0  libshutdown2.o(.ARM.Collect$$libshutdown$$00000007)
    __rt_lib_shutdown_heap_1                 0x00000143   Thumb Code     0  libshutdown2.o(.ARM.Collect$$libshutdown$$0000000F)
    __rt_lib_shutdown_return                 0x00000143   Thumb Code     0  libshutdown2.o(.ARM.Collect$$libshutdown$$00000010)
    __rt_lib_shutdown_signal_1               0x00000143   Thumb Code     0  libshutdown2.o(.ARM.Collect$$libshutdown$$0000000A)
    __rt_lib_shutdown_stdio_1                0x00000143   Thumb Code     0  libshutdown2.o(.ARM.Collect$$libshutdown$$00000004)
    __rt_lib_shutdown_user_alloc_1           0x00000143   Thumb Code     0  libshutdown2.o(.ARM.Collect$$libshutdown$$0000000C)
    __rt_entry                               0x00000145   Thumb Code     0  __rtentry.o(.ARM.Collect$$rtentry$$00000000)
    __rt_entry_presh_1                       0x00000145   Thumb Code     0  __rtentry2.o(.ARM.Collect$$rtentry$$00000002)
    __rt_entry_sh                            0x00000145   Thumb Code     0  __rtentry4.o(.ARM.Collect$$rtentry$$00000004)
    __rt_entry_li                            0x0000014b   Thumb Code     0  __rtentry2.o(.ARM.Collect$$rtentry$$0000000A)
    __rt_entry_postsh_1                      0x0000014b   Thumb Code     0  __rtentry2.o(.ARM.Collect$$rtentry$$00000009)
    __rt_entry_main                          0x0000014f   Thumb Code     0  __rtentry2.o(.ARM.Collect$$rtentry$$0000000D)
    __rt_entry_postli_1                      0x0000014f   Thumb Code     0  __rtentry2.o(.ARM.Collect$$rtentry$$0000000C)
    __rt_exit                                0x00000157   Thumb Code     0  rtexit.o(.ARM.Collect$$rtexit$$00000000)
    __rt_exit_ls                             0x00000159   Thumb Code     0  rtexit2.o(.ARM.Collect$$rtexit$$00000003)
    __rt_exit_prels_1                        0x00000159   Thumb Code     0  rtexit2.o(.ARM.Collect$$rtexit$$00000002)
    __rt_exit_exit                           0x0000015d   Thumb Code     0  rtexit2.o(.ARM.Collect$$rtexit$$00000004)
    __aeabi_memcpy4                          0x00000165   Thumb Code    56  rt_memcpy.o(.emb_text)
    __aeabi_memcpy8                          0x00000165   Thumb Code     0  rt_memcpy.o(.emb_text)
    Reset_Handler                            0x0000019d   Thumb Code    28  startup_isd9100.o(.text)
    NMI_Handler                              0x000001b9   Thumb Code     2  startup_isd9100.o(.text)
    HardFault_Handler                        0x000001bb   Thumb Code     2  startup_isd9100.o(.text)
    SVC_Handler                              0x000001bd   Thumb Code     2  startup_isd9100.o(.text)
    PendSV_Handler                           0x000001bf   Thumb Code     2  startup_isd9100.o(.text)
    SysTick_Handler                          0x000001c1   Thumb Code     2  startup_isd9100.o(.text)
    ACMP_IRQHandler                          0x000001c3   Thumb Code     0  startup_isd9100.o(.text)
    ADC_IRQHandler                           0x000001c3   Thumb Code     0  startup_isd9100.o(.text)
    ALC_IRQHandler                           0x000001c3   Thumb Code     0  startup_isd9100.o(.text)
    BOD_IRQHandler                           0x000001c3   Thumb Code     0  startup_isd9100.o(.text)
    EINT0_IRQHandler                         0x000001c3   Thumb Code     0  startup_isd9100.o(.text)
    EINT1_IRQHandler                         0x000001c3   Thumb Code     0  startup_isd9100.o(.text)
    I2C0_IRQHandler                          0x000001c3   Thumb Code     0  startup_isd9100.o(.text)
    I2S_IRQHandler                           0x000001c3   Thumb Code     0  startup_isd9100.o(.text)
    SPI0_IRQHandler                          0x000001c3   Thumb Code     0  startup_isd9100.o(.text)
    TALARM_IRQHandler                        0x000001c3   Thumb Code     0  startup_isd9100.o(.text)
    __user_initial_stackheap                 0x000001c5   Thumb Code     0  startup_isd9100.o(.text)
    _memset_w                                0x000001fd   Thumb Code    26  rt_memclr.o(.text)
    _memset                                  0x00000217   Thumb Code    30  rt_memclr.o(.text)
    __aeabi_memclr                           0x00000235   Thumb Code     4  rt_memclr.o(.text)
    __rt_memclr                              0x00000235   Thumb Code     0  rt_memclr.o(.text)
    __aeabi_memclr4                          0x00000239   Thumb Code     0  rt_memclr.o(.text)
    __aeabi_memclr8                          0x00000239   Thumb Code     0  rt_memclr.o(.text)
    __rt_memclr_w                            0x00000239   Thumb Code     4  rt_memclr.o(.text)
    __aeabi_uidiv                            0x0000023d   Thumb Code     0  aeabi_sdivfast.o(.text)
    __aeabi_uidivmod                         0x0000023d   Thumb Code    28  aeabi_sdivfast.o(.text)
    __aeabi_idiv                             0x00000259   Thumb Code     0  aeabi_sdivfast.o(.text)
    __aeabi_idivmod                          0x00000259   Thumb Code   460  aeabi_sdivfast.o(.text)
    __use_two_region_memory                  0x00000425   Thumb Code     2  heapauxi.o(.text)
    __rt_heap_escrow$2region                 0x00000427   Thumb Code     2  heapauxi.o(.text)
    __rt_heap_expand$2region                 0x00000429   Thumb Code     2  heapauxi.o(.text)
    __user_setup_stackheap                   0x0000042b   Thumb Code    62  sys_stackheap_outer.o(.text)
    exit                                     0x00000469   Thumb Code    16  exit.o(.text)
    __user_libspace                          0x00000479   Thumb Code     8  libspace.o(.text)
    __user_perproc_libspace                  0x00000479   Thumb Code     0  libspace.o(.text)
    __user_perthread_libspace                0x00000479   Thumb Code     0  libspace.o(.text)
    _sys_exit                                0x00000481   Thumb Code     8  sys_exit.o(.text)
    __I$use$semihosting                      0x0000048d   Thumb Code     0  use_no_semi.o(.text)
    __use_no_semihosting_swi                 0x0000048d   Thumb Code     2  use_no_semi.o(.text)
    __semihosting_library_function           0x0000048f   Thumb Code     0  indicate_semi.o(.text)
    ADC_EnableMICBias                        0x00000491   Thumb Code    12  adc.o(i.ADC_EnableMICBias)
    ADC_Open                                 0x000004a1   Thumb Code     2  adc.o(i.ADC_Open)
    ADC_SetAMUX                              0x000004a5   Thumb Code    66  adc.o(i.ADC_SetAMUX)
    ADC_SetPGAGaindB                         0x000004f1   Thumb Code    42  adc.o(i.ADC_SetPGAGaindB)
    App_Initiate                             0x00000529   Thumb Code    48  appfunctions.o(i.App_Initiate)
    App_Process                              0x0000056d   Thumb Code   508  appfunctions.o(i.App_Process)
    App_StartRecognize                       0x000007a1   Thumb Code    26  appfunctions.o(i.App_StartRecognize)
    BIQ_Reset                                0x000007f5   Thumb Code    22  biq.o(i.BIQ_Reset)
    BIQ_SetCoeff                             0x00000811   Thumb Code    62  biq.o(i.BIQ_SetCoeff)
    BsrAbby                                  0x00000855   Thumb Code    44  BsrJoe.o(i.BsrAbby)
    BsrAbel                                  0x00000881   Thumb Code   126  BsrJoe.o(i.BsrAbel)
    BsrAdam                                  0x000008ff   Thumb Code   200  BsrJoe.o(i.BsrAdam)
    BsrAlma                                  0x000009c7   Thumb Code   210  BsrDon.o(i.BsrAlma)
    BsrAmir                                  0x00000a99   Thumb Code    24  BsrDon.o(i.BsrAmir)
    BsrAmos                                  0x00000ab1   Thumb Code   294  BsrDon.o(i.BsrAmos)
    BsrAna                                   0x00000bd7   Thumb Code    42  BsrJim.o(i.BsrAna)
    BsrAnna                                  0x00000c01   Thumb Code    38  BsrDon.o(i.BsrAnna)
    BsrAnne                                  0x00000c27   Thumb Code    24  BsrDon.o(i.BsrAnne)
    BsrAnnie                                 0x00000c3f   Thumb Code    28  BsrDon.o(i.BsrAnnie)
    BsrAri                                   0x00000c5d   Thumb Code   172  BsrJim.o(i.BsrAri)
    BsrAsa                                   0x00000d0d   Thumb Code   238  BsrJim.o(i.BsrAsa)
    BsrAvea                                  0x00000e01   Thumb Code   170  BsrJim.o(i.BsrAvea)
    BsrAyla                                  0x00000eab   Thumb Code    26  BsrDon.o(i.BsrAyla)
    BsrBaby                                  0x00000ec5   Thumb Code    14  BsrDon.o(i.BsrBaby)
    BsrBrad                                  0x00000f81   Thumb Code    54  BsrBen.o(i.BsrBrad)
    BsrCade                                  0x0000110d   Thumb Code   394  BsrJay.o(i.BsrCade)
    BsrCadea                                 0x00001299   Thumb Code   254  BsrJay.o(i.BsrCadea)
    BsrCale                                  0x0000139d   Thumb Code    68  BsrJay.o(i.BsrCale)
    BsrCara                                  0x000013e1   Thumb Code  1000  BsrJay.o(i.BsrCara)
    BsrCarae                                 0x000017c9   Thumb Code   198  BsrJay.o(i.BsrCarae)
    BsrChad                                  0x00001895   Thumb Code   182  BsrJay.o(i.BsrChad)
    BsrChada                                 0x00001951   Thumb Code    68  BsrJay.o(i.BsrChada)
    BsrChaz                                  0x00001999   Thumb Code   218  BsrJay.o(i.BsrChaz)
    BsrChaza                                 0x00001a79   Thumb Code   182  BsrJay.o(i.BsrChaza)
    BsrChaze                                 0x00001b35   Thumb Code   204  BsrJay.o(i.BsrChaze)
    BsrChazi                                 0x00001c05   Thumb Code   206  BsrJay.o(i.BsrChazi)
    BsrClay                                  0x00001cd5   Thumb Code  1378  BsrJay.o(i.BsrClay)
    BsrCory                                  0x0000223d   Thumb Code   488  BsrJoy.o(i.BsrCory)
    BsrCoty                                  0x00002429   Thumb Code    34  BsrJoy.o(i.BsrCoty)
    BsrDan                                   0x0000244d   Thumb Code    82  BsrJim.o(i.BsrDan)
    BsrDane                                  0x000024a5   Thumb Code     8  BsrJoy.o(i.BsrDane)
    BsrDawn                                  0x000024ad   Thumb Code     8  BsrJoy.o(i.BsrDawn)
    BsrDeja                                  0x000024b5   Thumb Code   108  BsrJoy.o(i.BsrDeja)
    BsrDemi                                  0x00002521   Thumb Code   374  BsrJoy.o(i.BsrDemi)
    BsrDeon                                  0x000026a1   Thumb Code   374  BsrJoy.o(i.BsrDeon)
    BsrDina                                  0x00002817   Thumb Code   586  BsrJoy.o(i.BsrDina)
    BsrDion                                  0x00002a61   Thumb Code   214  BsrJoy.o(i.BsrDion)
    BsrEden                                  0x00002b3d   Thumb Code   350  BsrEva.o(i.BsrEden)
    BsrEli                                   0x00002ca1   Thumb Code    88  BsrJim.o(i.BsrEli)
    BsrElla                                  0x00002cf9   Thumb Code   426  BsrEva.o(i.BsrElla)
    BsrElsa                                  0x00002ea9   Thumb Code   370  BsrEva.o(i.BsrElsa)
    BsrEmma                                  0x00003021   Thumb Code   212  BsrEli.o(i.BsrEmma)
    BsrEric                                  0x000030f9   Thumb Code   130  BsrEli.o(i.BsrEric)
    BsrErica                                 0x0000317d   Thumb Code   306  BsrEli.o(i.BsrErica)
    BsrErik                                  0x000032b9   Thumb Code    46  BsrEli.o(i.BsrErik)
    BsrErin                                  0x000032e7   Thumb Code   230  BsrEli.o(i.BsrErin)
    BsrEva                                   0x000033cd   Thumb Code    34  BsrJim.o(i.BsrEva)
    BsrEvan                                  0x000033ef   Thumb Code    58  BsrEli.o(i.BsrEvan)
    BsrGary                                  0x00003429   Thumb Code   188  BsrAna.o(i.BsrGary)
    BsrGreg                                  0x000034e9   Thumb Code   448  BsrAnn.o(i.BsrGreg)
    BsrGuy                                   0x000036b5   Thumb Code    54  BsrJim.o(i.BsrGuy)
    BsrHugo                                  0x000036ed   Thumb Code   170  BsrGuy.o(i.BsrHugo)
    BsrIris                                  0x0000379d   Thumb Code    54  BsrGuy.o(i.BsrIris)
    BsrIrma                                  0x000037d5   Thumb Code    80  BsrGuy.o(i.BsrIrma)
    BsrIsai                                  0x00003829   Thumb Code    46  BsrGuy.o(i.BsrIsai)
    BsrIvy                                   0x00003857   Thumb Code   188  BsrJim.o(i.BsrIvy)
    BsrJan                                   0x000039f5   Thumb Code    24  BsrJim.o(i.BsrJan)
    BsrJohn                                  0x00003d07   Thumb Code    42  BsrAli.o(i.BsrJohn)
    BsrJose                                  0x00003d31   Thumb Code    54  BsrAli.o(i.BsrJose)
    BsrJosh                                  0x00003d67   Thumb Code   164  BsrAli.o(i.BsrJosh)
    BsrJoyci                                 0x00003e0d   Thumb Code   218  BsrJim.o(i.BsrJoyci)
    BsrLei                                   0x00003f21   Thumb Code    24  BsrJim.o(i.BsrLei)
    BsrMaxi                                  0x00003f39   Thumb Code   122  BsrJim.o(i.BsrMaxi)
    BsrMichael                               0x00003fb3   Thumb Code  1398  BsrJim.o(i.BsrMichael)
    BsrMichelle                              0x00004529   Thumb Code     8  BsrJim.o(i.BsrMichelle)
    BsrMike                                  0x00004531   Thumb Code   172  BsrJim.o(i.BsrMike)
    BsrMya                                   0x000045dd   Thumb Code   136  BsrKai.o(i.BsrMya)
    BsrNia                                   0x00004665   Thumb Code    50  BsrKai.o(i.BsrNia)
    BsrRay                                   0x00004697   Thumb Code   310  BsrKai.o(i.BsrRay)
    BsrRex                                   0x000047cd   Thumb Code    18  BsrKai.o(i.BsrRex)
    BsrRey                                   0x000047df   Thumb Code    16  BsrKai.o(i.BsrRey)
    BsrRon                                   0x000047ef   Thumb Code  1186  BsrKai.o(i.BsrRon)
    BsrRoy                                   0x00004c91   Thumb Code    44  BsrKai.o(i.BsrRoy)
    BsrTed                                   0x00004cbd   Thumb Code    16  BsrKai.o(i.BsrTed)
    BsrTia                                   0x00004ccd   Thumb Code   104  BsrKai.o(i.BsrTia)
    BsrTom                                   0x00004d35   Thumb Code   146  BsrKai.o(i.BsrTom)
    BsrTop                                   0x00004dc7   Thumb Code    94  BsrKai.o(i.BsrTop)
    BsrTre                                   0x00004e25   Thumb Code    18  BsrKai.o(i.BsrTre)
    BsrZoe                                   0x00004e37   Thumb Code     4  BsrJoe.o(i.BsrZoe)
    BufCtrl_UpdateReadWithCount              0x00004e3b   Thumb Code    30  bufctrl.o(i.BufCtrl_UpdateReadWithCount)
    BufCtrl_UpdateWriteWithCount             0x00004e59   Thumb Code    30  bufctrl.o(i.BufCtrl_UpdateWriteWithCount)
    CAPS_IRQHandler                          0x00004e79   Thumb Code    12  interrupthandler.o(i.CAPS_IRQHandler)
    CLK_EnableLDO                            0x00004e89   Thumb Code    44  clk.o(i.CLK_EnableLDO)
    CLK_EnableModuleClock                    0x00004ebd   Thumb Code    24  clk.o(i.CLK_EnableModuleClock)
    CLK_EnableXtalRC                         0x00004ed9   Thumb Code    22  clk.o(i.CLK_EnableXtalRC)
    CLK_GetHCLKFreq                          0x00004ef5   Thumb Code    12  clk.o(i.CLK_GetHCLKFreq)
    CLK_SetHCLK                              0x00004f05   Thumb Code    56  clk.o(i.CLK_SetHCLK)
    CLK_SetModuleClock                       0x00004f41   Thumb Code    74  clk.o(i.CLK_SetModuleClock)
    CSpotter_AddSample                       0x00004f91   Thumb Code    82  CSpotterSDKApi.o(i.CSpotter_AddSample)
    CSpotter_GetMemoryUsage_MultiWithSpeakerAndExtRejModel 0x00004ff5   Thumb Code   178  CSpotterSDKApi.o(i.CSpotter_GetMemoryUsage_MultiWithSpeakerAndExtRejModel)
    CSpotter_GetMemoryUsage_Sep              0x000050b1   Thumb Code    24  CSpotterSDKApi.o(i.CSpotter_GetMemoryUsage_Sep)
    CSpotter_GetResult                       0x000050c9   Thumb Code    30  CSpotterSDKApi.o(i.CSpotter_GetResult)
    CSpotter_Init_MultiWithExtRejModel       0x000050ed   Thumb Code   488  CSpotterSDKApi.o(i.CSpotter_Init_MultiWithExtRejModel)
    CSpotter_Init_Sep                        0x000052f1   Thumb Code    36  CSpotterSDKApi.o(i.CSpotter_Init_Sep)
    CSpotter_Reset                           0x00005315   Thumb Code    40  CSpotterSDKApi.o(i.CSpotter_Reset)
    DPWM_Open                                0x00005349   Thumb Code     2  dpwm.o(i.DPWM_Open)
    GPAB_IRQHandler                          0x0000534d   Thumb Code    18  interrupthandler.o(i.GPAB_IRQHandler)
    GPIO_SetMode                             0x00005369   Thumb Code    40  gpio.o(i.GPIO_SetMode)
    MD4App_DecodeProcess                     0x00005391   Thumb Code   132  md4app.o(i.MD4App_DecodeProcess)
    MD4_DecodeIsEnd                          0x00005501   Thumb Code    22  md4decode.o(i.MD4_DecodeIsEnd)
    MD4_DecodeProcess                        0x00005517   Thumb Code   256  md4decode.o(i.MD4_DecodeProcess)
    MIC_ChangeSR                             0x00005619   Thumb Code   108  micspk.o(i.MIC_ChangeSR)
    MIC_Open                                 0x00005699   Thumb Code   152  micspk.o(i.MIC_Open)
    MIC_Start                                0x0000574d   Thumb Code     8  micspk.o(i.MIC_Start)
    MicGetApp_Initiate                       0x00005759   Thumb Code    22  micgetapp.o(i.MicGetApp_Initiate)
    MicGetApp_ProcessRec                     0x0000576f   Thumb Code    40  micgetapp.o(i.MicGetApp_ProcessRec)
    MicGetApp_StartRec                       0x00005797   Thumb Code    40  micgetapp.o(i.MicGetApp_StartRec)
    NINJA_API_1                              0x000057bf   Thumb Code   102  BsrGo.o(i.NINJA_API_1)
    NINJA_API_11                             0x00005825   Thumb Code   634  BsrGo.o(i.NINJA_API_11)
    NINJA_API_13                             0x00005aa5   Thumb Code   358  BsrGo.o(i.NINJA_API_13)
    NINJA_API_15                             0x00005c15   Thumb Code    30  BsrGo.o(i.NINJA_API_15)
    NINJA_API_19                             0x00005c33   Thumb Code    30  BsrGo.o(i.NINJA_API_19)
    NINJA_API_2                              0x00005c51   Thumb Code    40  BsrGo.o(i.NINJA_API_2)
    NINJA_API_23                             0x00005c79   Thumb Code    38  BsrGo.o(i.NINJA_API_23)
    NINJA_API_26                             0x00005c9f   Thumb Code    48  BsrGo.o(i.NINJA_API_26)
    NINJA_API_3                              0x00005ccf   Thumb Code    36  BsrGo.o(i.NINJA_API_3)
    NINJA_API_47                             0x00005cf3   Thumb Code   112  BsrGo.o(i.NINJA_API_47)
    NINJA_API_48                             0x00005d63   Thumb Code   126  BsrGo.o(i.NINJA_API_48)
    NINJA_API_55                             0x00005de1   Thumb Code    60  BsrGo.o(i.NINJA_API_55)
    NINJA_API_56                             0x00005e1d   Thumb Code    42  BsrGo.o(i.NINJA_API_56)
    NINJA_API_73                             0x00005e49   Thumb Code   978  BsrGo.o(i.NINJA_API_73)
    NINJA_API_75                             0x00006229   Thumb Code   174  BsrGo.o(i.NINJA_API_75)
    OutputPin_Initiate                       0x000062f1   Thumb Code    38  configio.o(i.OutputPin_Initiate)
    PDMA_DisableInt                          0x00006321   Thumb Code    14  pdma.o(i.PDMA_DisableInt)
    PDMA_EnableInt                           0x00006335   Thumb Code    14  pdma.o(i.PDMA_EnableInt)
    PDMA_IRQHandler                          0x00006349   Thumb Code    42  interrupthandler.o(i.PDMA_IRQHandler)
    PDMA_Open                                0x00006381   Thumb Code    12  pdma.o(i.PDMA_Open)
    PDMA_SetTransferAddr                     0x00006391   Thumb Code    28  pdma.o(i.PDMA_SetTransferAddr)
    PDMA_SetTransferCnt                      0x000063b1   Thumb Code    50  pdma.o(i.PDMA_SetTransferCnt)
    PDMA_SetTransferDirection                0x000063e9   Thumb Code    18  pdma.o(i.PDMA_SetTransferDirection)
    PDMA_SetTransferMode                     0x00006401   Thumb Code   148  pdma.o(i.PDMA_SetTransferMode)
    PDMA_Trigger                             0x00006499   Thumb Code    16  pdma.o(i.PDMA_Trigger)
    PWM0_IRQHandler                          0x000064b1   Thumb Code    68  main.o(i.PWM0_IRQHandler)
    PWM_ClearIntFlag                         0x000064fd   Thumb Code     8  pwm.o(i.PWM_ClearIntFlag)
    PWM_ConfigOutputChannel                  0x00006505   Thumb Code   280  pwm.o(i.PWM_ConfigOutputChannel)
    PWM_DisableDeadZone                      0x0000662d   Thumb Code    14  pwm.o(i.PWM_DisableDeadZone)
    PWM_EnableOutput                         0x0000663b   Thumb Code     8  pwm.o(i.PWM_EnableOutput)
    PWM_GetIntFlag                           0x00006643   Thumb Code    14  pwm.o(i.PWM_GetIntFlag)
    PWM_Start                                0x00006651   Thumb Code    38  pwm.o(i.PWM_Start)
    PdmaCtrl_Init                            0x00006679   Thumb Code    28  pdmactrl.o(i.PdmaCtrl_Init)
    PdmaCtrl_Open                            0x0000669d   Thumb Code   132  pdmactrl.o(i.PdmaCtrl_Open)
    PdmaCtrl_Start                           0x00006729   Thumb Code    60  pdmactrl.o(i.PdmaCtrl_Start)
    PdmaCtrl_Stop                            0x00006769   Thumb Code    16  pdmactrl.o(i.PdmaCtrl_Stop)
    Playback_Initiate                        0x0000677d   Thumb Code    10  playback.o(i.Playback_Initiate)
    Playback_Process                         0x00006789   Thumb Code   190  playback.o(i.Playback_Process)
    Playback_Remove                          0x00006855   Thumb Code    26  playback.o(i.Playback_Remove)
    Playback_ResetChannelVolume              0x00006875   Thumb Code    14  playback.o(i.Playback_ResetChannelVolume)
    Playback_StopPlay                        0x00006889   Thumb Code    68  playback.o(i.Playback_StopPlay)
    RTC_IRQHandler                           0x000068d5   Thumb Code     2  interrupthandler.o(i.RTC_IRQHandler)
    Record_Add                               0x000068d9   Thumb Code    18  record.o(i.Record_Add)
    Record_Process                           0x000068f1   Thumb Code    58  record.o(i.Record_Process)
    Record_SetInBufRecord                    0x00006935   Thumb Code    34  record.o(i.Record_SetInBufRecord)
    Record_StartRec                          0x00006959   Thumb Code    54  record.o(i.Record_StartRec)
    SPIFlash_3ByteAddr_Cmd                   0x000069a1   Thumb Code    48  spiflash.o(i.SPIFlash_3ByteAddr_Cmd)
    SPIFlash_Read                            0x000069d1   Thumb Code    30  spiflash.o(i.SPIFlash_Read)
    SPIFlash_ReadData                        0x000069ef   Thumb Code   212  spiflash.o(i.SPIFlash_ReadData)
    SPIFlash_ReadDataCallback                0x00006ac5   Thumb Code    18  appcallback.o(i.SPIFlash_ReadDataCallback)
    SPIFlash_ReadEnd                         0x00006add   Thumb Code    24  spiflash.o(i.SPIFlash_ReadEnd)
    SPIFlash_ReadStart                       0x00006af5   Thumb Code    78  spiflash.o(i.SPIFlash_ReadStart)
    SPK_Open                                 0x00006b45   Thumb Code    56  micspk.o(i.SPK_Open)
    SPK_Stop                                 0x00006b8d   Thumb Code    12  micspk.o(i.SPK_Stop)
    SYS_Lock                                 0x00006b9d   Thumb Code    12  sys.o(i.SYS_Lock)
    SYS_ResetModule                          0x00006bad   Thumb Code    26  sys.o(i.SYS_ResetModule)
    SYS_Unlock                               0x00006bc9   Thumb Code    38  sys.o(i.SYS_Unlock)
    SendCMD                                  0x00006bf5   Thumb Code    40  appfunctions.o(i.SendCMD)
    SendCMD1time                             0x00006c1d   Thumb Code    36  appfunctions.o(i.SendCMD1time)
    SendCMDByteTimer                         0x00006c41   Thumb Code   112  appfunctions.o(i.SendCMDByteTimer)
    SendCMDNULL                              0x00006cb9   Thumb Code    98  appfunctions.o(i.SendCMDNULL)
    SysClk_InitiateRC                        0x00006d25   Thumb Code    76  sysclk.o(i.SysClk_InitiateRC)
    SystemCoreClockUpdate                    0x00006d79   Thumb Code    62  system_isd9100.o(i.SystemCoreClockUpdate)
    TIMER_GetModuleClock                     0x00006dc9   Thumb Code    70  timer.o(i.TIMER_GetModuleClock)
    TIMER_Open                               0x00006e21   Thumb Code    94  timer.o(i.TIMER_Open)
    TMR0_IRQHandler                          0x00006e81   Thumb Code   134  main.o(i.TMR0_IRQHandler)
    TMR1_IRQHandler                          0x00006f19   Thumb Code    86  main.o(i.TMR1_IRQHandler)
    UART0_IRQHandler                         0x00006f7d   Thumb Code    96  main.o(i.UART0_IRQHandler)
    UART_ClearIntFlag                        0x00006fe5   Thumb Code    50  uart.o(i.UART_ClearIntFlag)
    UART_Init                                0x0000701d   Thumb Code   108  main.o(i.UART_Init)
    UART_Open                                0x00007091   Thumb Code    84  uart.o(i.UART_Open)
    UserEvent_ProcessCallback                0x000070ed   Thumb Code     4  appcallback.o(i.UserEvent_ProcessCallback)
    VROneCmdApp_GetCMDID                     0x000070f1   Thumb Code    42  vronecmdapp.o(i.VROneCmdApp_GetCMDID)
    VROneCmdApp_Initiate                     0x0000711b   Thumb Code    72  vronecmdapp.o(i.VROneCmdApp_Initiate)
    VROneCmdApp_UnpackBin                    0x00007163   Thumb Code    56  vronecmdapp.o(i.VROneCmdApp_UnpackBin)
    VolumeCtrl_Reset                         0x0000719b   Thumb Code    22  volumectrl.o(i.VolumeCtrl_Reset)
    VolumeCtrl_VolumeFade                    0x000071b1   Thumb Code    32  volumectrl.o(i.VolumeCtrl_VolumeFade)
    WDT_IRQHandler                           0x000071d5   Thumb Code     2  interrupthandler.o(i.WDT_IRQHandler)
    __ARM_common_switch8                     0x000071d7   Thumb Code    26  appfunctions.o(i.__ARM_common_switch8)
    delayms                                  0x000071f1   Thumb Code    30  appfunctions.o(i.delayms)
    main                                     0x00007215   Thumb Code    66  main.o(i.main)
    pwm_init                                 0x00007261   Thumb Code   180  main.o(i.pwm_init)
    time_init                                0x00007329   Thumb Code   114  main.o(i.time_init)
    uart_rev_task                            0x000073ad   Thumb Code    24  main.o(i.uart_rev_task)
    g_asAppCallBack                          0x000073c8   Data          16  appcallback.o(.constdata)
    g_u32BiqCoeff                            0x000073e0   Data          60  micspk.o(.constdata)
    g_u16Playback_Volume_DB_Table            0x0000741c   Data          26  volumectrl.o(.constdata)
    au16MD4StepAry                           0x000074f4   Data          32  md4decode.o(.constdata)
    ai8MD4CoefTable                          0x00007514   Data          16  md4decode.o(.constdata)
    Region$$Table$$Base                      0x00008f30   Number         0  anon$$obj.o(Region$$Table)
    Region$$Table$$Limit                     0x00008f50   Number         0  anon$$obj.o(Region$$Table)
    flag_1p25ms                              0x20000000   Data           1  main.o(.data)
    sendbline                                0x20000001   Data           1  main.o(.data)
    flag_150ms                               0x20000002   Data           1  main.o(.data)
    flag_0p5ms                               0x20000003   Data           1  main.o(.data)
    Fan_StautsLine                           0x20000004   Data           1  main.o(.data)
    vr_time                                  0x2000000a   Data           2  main.o(.data)
    Fan_Stauts                               0x20000018   Data           1  main.o(.data)
    g_u8AppCtrl                              0x20000019   Data           1  main.o(.data)
    i32ID                                    0x2000001a   Data           1  appfunctions.o(.data)
    SystemCoreClock                          0x20000020   Data           4  system_isd9100.o(.data)
    CyclesPerUs                              0x20000024   Data           4  system_isd9100.o(.data)
    gau32HiRCSrcTbl                          0x20000028   Data           8  system_isd9100.o(.data)
    gau32ClkSrcTbl                           0x20000030   Data          12  system_isd9100.o(.data)
    g_pi16PcmBuf                             0x20000040   Data           4  playback.o(.data)
    g_psDacBufCtrl                           0x20000044   Data           4  playback.o(.data)
    g_sChannelVolInfo                        0x20000048   Data           8  volumectrl.o(.data)
    g_psAdcBufCtrl                           0x20000054   Data           4  record.o(.data)
    g_sSpiFlash                              0x20000058   Data          12  main.o(.bss)
    ap_uart0                                 0x20000064   Data         128  main.o(.bss)
    pwm0                                     0x200000e4   Data          12  main.o(.bss)
    pwm1                                     0x200000f0   Data          12  main.o(.bss)
    g_sApp                                   0x200000fc   Data        9984  main.o(.bss)
    g_ai16DACSamples                         0x200027fc   Data          16  interrupthandler.o(.bss)
    g_ai16ADCSamples                         0x2000280c   Data          16  interrupthandler.o(.bss)
    __libspace_start                         0x2000281c   Data          96  libspace.o(.bss)
    __temporary_stack_top$libspace           0x2000287c   Data           0  libspace.o(.bss)



==============================================================================

Memory Map of the image

  Image Entry point : 0x0000019d

  Load Region LR_IROM1 (Base: 0x00000000, Size: 0x00008fa8, Max: 0x00024400, ABSOLUTE)

    Execution Region ER_IROM1 (Exec base: 0x00000000, Load base: 0x00000000, Size: 0x00008f50, Max: 0x00024400, ABSOLUTE)

    Exec Addr    Load Addr    Size         Type   Attr      Idx    E Section Name        Object

    0x00000000   0x00000000   0x000000c0   Data   RO          910    RESET               startup_isd9100.o
    0x000000c0   0x000000c0   0x00000008   Code   RO         3974  * !!!main             c_p.l(__main.o)
    0x000000c8   0x000000c8   0x0000003c   Code   RO         4157    !!!scatter          c_p.l(__scatter.o)
    0x00000104   0x00000104   0x0000001a   Code   RO         4159    !!handler_copy      c_p.l(__scatter_copy.o)
    0x0000011e   0x0000011e   0x00000002   PAD
    0x00000120   0x00000120   0x0000001c   Code   RO         4161    !!handler_zi        c_p.l(__scatter_zi.o)
    0x0000013c   0x0000013c   0x00000002   Code   RO         4028    .ARM.Collect$$libinit$$00000000  c_p.l(libinit.o)
    0x0000013e   0x0000013e   0x00000000   Code   RO         4042    .ARM.Collect$$libinit$$00000002  c_p.l(libinit2.o)
    0x0000013e   0x0000013e   0x00000000   Code   RO         4044    .ARM.Collect$$libinit$$00000004  c_p.l(libinit2.o)
    0x0000013e   0x0000013e   0x00000000   Code   RO         4047    .ARM.Collect$$libinit$$0000000A  c_p.l(libinit2.o)
    0x0000013e   0x0000013e   0x00000000   Code   RO         4049    .ARM.Collect$$libinit$$0000000C  c_p.l(libinit2.o)
    0x0000013e   0x0000013e   0x00000000   Code   RO         4051    .ARM.Collect$$libinit$$0000000E  c_p.l(libinit2.o)
    0x0000013e   0x0000013e   0x00000000   Code   RO         4054    .ARM.Collect$$libinit$$00000011  c_p.l(libinit2.o)
    0x0000013e   0x0000013e   0x00000000   Code   RO         4056    .ARM.Collect$$libinit$$00000013  c_p.l(libinit2.o)
    0x0000013e   0x0000013e   0x00000000   Code   RO         4058    .ARM.Collect$$libinit$$00000015  c_p.l(libinit2.o)
    0x0000013e   0x0000013e   0x00000000   Code   RO         4060    .ARM.Collect$$libinit$$00000017  c_p.l(libinit2.o)
    0x0000013e   0x0000013e   0x00000000   Code   RO         4062    .ARM.Collect$$libinit$$00000019  c_p.l(libinit2.o)
    0x0000013e   0x0000013e   0x00000000   Code   RO         4064    .ARM.Collect$$libinit$$0000001B  c_p.l(libinit2.o)
    0x0000013e   0x0000013e   0x00000000   Code   RO         4066    .ARM.Collect$$libinit$$0000001D  c_p.l(libinit2.o)
    0x0000013e   0x0000013e   0x00000000   Code   RO         4068    .ARM.Collect$$libinit$$0000001F  c_p.l(libinit2.o)
    0x0000013e   0x0000013e   0x00000000   Code   RO         4070    .ARM.Collect$$libinit$$00000021  c_p.l(libinit2.o)
    0x0000013e   0x0000013e   0x00000000   Code   RO         4072    .ARM.Collect$$libinit$$00000023  c_p.l(libinit2.o)
    0x0000013e   0x0000013e   0x00000000   Code   RO         4074    .ARM.Collect$$libinit$$00000025  c_p.l(libinit2.o)
    0x0000013e   0x0000013e   0x00000000   Code   RO         4078    .ARM.Collect$$libinit$$0000002C  c_p.l(libinit2.o)
    0x0000013e   0x0000013e   0x00000000   Code   RO         4080    .ARM.Collect$$libinit$$0000002E  c_p.l(libinit2.o)
    0x0000013e   0x0000013e   0x00000000   Code   RO         4082    .ARM.Collect$$libinit$$00000030  c_p.l(libinit2.o)
    0x0000013e   0x0000013e   0x00000000   Code   RO         4084    .ARM.Collect$$libinit$$00000032  c_p.l(libinit2.o)
    0x0000013e   0x0000013e   0x00000002   Code   RO         4085    .ARM.Collect$$libinit$$00000033  c_p.l(libinit2.o)
    0x00000140   0x00000140   0x00000002   Code   RO         4114    .ARM.Collect$$libshutdown$$00000000  c_p.l(libshutdown.o)
    0x00000142   0x00000142   0x00000000   Code   RO         4140    .ARM.Collect$$libshutdown$$00000002  c_p.l(libshutdown2.o)
    0x00000142   0x00000142   0x00000000   Code   RO         4142    .ARM.Collect$$libshutdown$$00000004  c_p.l(libshutdown2.o)
    0x00000142   0x00000142   0x00000000   Code   RO         4145    .ARM.Collect$$libshutdown$$00000007  c_p.l(libshutdown2.o)
    0x00000142   0x00000142   0x00000000   Code   RO         4148    .ARM.Collect$$libshutdown$$0000000A  c_p.l(libshutdown2.o)
    0x00000142   0x00000142   0x00000000   Code   RO         4150    .ARM.Collect$$libshutdown$$0000000C  c_p.l(libshutdown2.o)
    0x00000142   0x00000142   0x00000000   Code   RO         4153    .ARM.Collect$$libshutdown$$0000000F  c_p.l(libshutdown2.o)
    0x00000142   0x00000142   0x00000002   Code   RO         4154    .ARM.Collect$$libshutdown$$00000010  c_p.l(libshutdown2.o)
    0x00000144   0x00000144   0x00000000   Code   RO         3982    .ARM.Collect$$rtentry$$00000000  c_p.l(__rtentry.o)
    0x00000144   0x00000144   0x00000000   Code   RO         3994    .ARM.Collect$$rtentry$$00000002  c_p.l(__rtentry2.o)
    0x00000144   0x00000144   0x00000006   Code   RO         4006    .ARM.Collect$$rtentry$$00000004  c_p.l(__rtentry4.o)
    0x0000014a   0x0000014a   0x00000000   Code   RO         3996    .ARM.Collect$$rtentry$$00000009  c_p.l(__rtentry2.o)
    0x0000014a   0x0000014a   0x00000004   Code   RO         3997    .ARM.Collect$$rtentry$$0000000A  c_p.l(__rtentry2.o)
    0x0000014e   0x0000014e   0x00000000   Code   RO         3999    .ARM.Collect$$rtentry$$0000000C  c_p.l(__rtentry2.o)
    0x0000014e   0x0000014e   0x00000008   Code   RO         4000    .ARM.Collect$$rtentry$$0000000D  c_p.l(__rtentry2.o)
    0x00000156   0x00000156   0x00000002   Code   RO         4033    .ARM.Collect$$rtexit$$00000000  c_p.l(rtexit.o)
    0x00000158   0x00000158   0x00000000   Code   RO         4089    .ARM.Collect$$rtexit$$00000002  c_p.l(rtexit2.o)
    0x00000158   0x00000158   0x00000004   Code   RO         4090    .ARM.Collect$$rtexit$$00000003  c_p.l(rtexit2.o)
    0x0000015c   0x0000015c   0x00000006   Code   RO         4091    .ARM.Collect$$rtexit$$00000004  c_p.l(rtexit2.o)
    0x00000162   0x00000162   0x00000002   PAD
    0x00000164   0x00000164   0x00000038   Code   RO         3962    .emb_text           c_p.l(rt_memcpy.o)
    0x0000019c   0x0000019c   0x00000060   Code   RO          911  * .text               startup_isd9100.o
    0x000001fc   0x000001fc   0x00000040   Code   RO         3966    .text               c_p.l(rt_memclr.o)
    0x0000023c   0x0000023c   0x000001e8   Code   RO         3968    .text               c_p.l(aeabi_sdivfast.o)
    0x00000424   0x00000424   0x00000006   Code   RO         3972    .text               c_p.l(heapauxi.o)
    0x0000042a   0x0000042a   0x0000003e   Code   RO         4012    .text               c_p.l(sys_stackheap_outer.o)
    0x00000468   0x00000468   0x00000010   Code   RO         4017    .text               c_p.l(exit.o)
    0x00000478   0x00000478   0x00000008   Code   RO         4029    .text               c_p.l(libspace.o)
    0x00000480   0x00000480   0x0000000c   Code   RO         4086    .text               c_p.l(sys_exit.o)
    0x0000048c   0x0000048c   0x00000002   Code   RO         4103    .text               c_p.l(use_no_semi.o)
    0x0000048e   0x0000048e   0x00000000   Code   RO         4105    .text               c_p.l(indicate_semi.o)
    0x0000048e   0x0000048e   0x00000002   PAD
    0x00000490   0x00000490   0x00000010   Code   RO         1947    i.ADC_EnableMICBias  adc.o
    0x000004a0   0x000004a0   0x00000002   Code   RO         1951    i.ADC_Open          adc.o
    0x000004a2   0x000004a2   0x00000002   PAD
    0x000004a4   0x000004a4   0x0000004c   Code   RO         1955    i.ADC_SetAMUX       adc.o
    0x000004f0   0x000004f0   0x00000038   Code   RO         1957    i.ADC_SetPGAGaindB  adc.o
    0x00000528   0x00000528   0x00000044   Code   RO          280    i.App_Initiate      appfunctions.o
    0x0000056c   0x0000056c   0x00000234   Code   RO          282    i.App_Process       appfunctions.o
    0x000007a0   0x000007a0   0x00000024   Code   RO          284    i.App_StartRecognize  appfunctions.o
    0x000007c4   0x000007c4   0x00000030   Code   RO         1137    i.BIQFilter_Setting  micspk.o
    0x000007f4   0x000007f4   0x0000001c   Code   RO         2052    i.BIQ_Reset         biq.o
    0x00000810   0x00000810   0x00000044   Code   RO         2053    i.BIQ_SetCoeff      biq.o
    0x00000854   0x00000854   0x0000002c   Code   RO         3760    i.BsrAbby           libCSpotterSDK_16k_24d_ISD9xxC_arm-cm0_V6.4.4_b20180328.lib(BsrJoe.o)
    0x00000880   0x00000880   0x0000007e   Code   RO         3761    i.BsrAbel           libCSpotterSDK_16k_24d_ISD9xxC_arm-cm0_V6.4.4_b20180328.lib(BsrJoe.o)
    0x000008fe   0x000008fe   0x000000c8   Code   RO         3762    i.BsrAdam           libCSpotterSDK_16k_24d_ISD9xxC_arm-cm0_V6.4.4_b20180328.lib(BsrJoe.o)
    0x000009c6   0x000009c6   0x000000d2   Code   RO         3634    i.BsrAlma           libCSpotterSDK_16k_24d_ISD9xxC_arm-cm0_V6.4.4_b20180328.lib(BsrDon.o)
    0x00000a98   0x00000a98   0x00000018   Code   RO         3635    i.BsrAmir           libCSpotterSDK_16k_24d_ISD9xxC_arm-cm0_V6.4.4_b20180328.lib(BsrDon.o)
    0x00000ab0   0x00000ab0   0x00000126   Code   RO         3636    i.BsrAmos           libCSpotterSDK_16k_24d_ISD9xxC_arm-cm0_V6.4.4_b20180328.lib(BsrDon.o)
    0x00000bd6   0x00000bd6   0x0000002a   Code   RO         3670    i.BsrAna            libCSpotterSDK_16k_24d_ISD9xxC_arm-cm0_V6.4.4_b20180328.lib(BsrJim.o)
    0x00000c00   0x00000c00   0x00000026   Code   RO         3638    i.BsrAnna           libCSpotterSDK_16k_24d_ISD9xxC_arm-cm0_V6.4.4_b20180328.lib(BsrDon.o)
    0x00000c26   0x00000c26   0x00000018   Code   RO         3639    i.BsrAnne           libCSpotterSDK_16k_24d_ISD9xxC_arm-cm0_V6.4.4_b20180328.lib(BsrDon.o)
    0x00000c3e   0x00000c3e   0x0000001c   Code   RO         3640    i.BsrAnnie          libCSpotterSDK_16k_24d_ISD9xxC_arm-cm0_V6.4.4_b20180328.lib(BsrDon.o)
    0x00000c5a   0x00000c5a   0x00000002   PAD
    0x00000c5c   0x00000c5c   0x000000b0   Code   RO         3671    i.BsrAri            libCSpotterSDK_16k_24d_ISD9xxC_arm-cm0_V6.4.4_b20180328.lib(BsrJim.o)
    0x00000d0c   0x00000d0c   0x000000f4   Code   RO         3672    i.BsrAsa            libCSpotterSDK_16k_24d_ISD9xxC_arm-cm0_V6.4.4_b20180328.lib(BsrJim.o)
    0x00000e00   0x00000e00   0x000000aa   Code   RO         3674    i.BsrAvea           libCSpotterSDK_16k_24d_ISD9xxC_arm-cm0_V6.4.4_b20180328.lib(BsrJim.o)
    0x00000eaa   0x00000eaa   0x0000001a   Code   RO         3646    i.BsrAyla           libCSpotterSDK_16k_24d_ISD9xxC_arm-cm0_V6.4.4_b20180328.lib(BsrDon.o)
    0x00000ec4   0x00000ec4   0x0000000e   Code   RO         3647    i.BsrBaby           libCSpotterSDK_16k_24d_ISD9xxC_arm-cm0_V6.4.4_b20180328.lib(BsrDon.o)
    0x00000ed2   0x00000ed2   0x000000ac   Code   RO         3675    i.BsrBen            libCSpotterSDK_16k_24d_ISD9xxC_arm-cm0_V6.4.4_b20180328.lib(BsrJim.o)
    0x00000f7e   0x00000f7e   0x00000002   PAD
    0x00000f80   0x00000f80   0x0000003c   Code   RO         3631    i.BsrBrad           libCSpotterSDK_16k_24d_ISD9xxC_arm-cm0_V6.4.4_b20180328.lib(BsrBen.o)
    0x00000fbc   0x00000fbc   0x00000150   Code   RO         3829    i.BsrBret           libCSpotterSDK_16k_24d_ISD9xxC_arm-cm0_V6.4.4_b20180328.lib(BsrJay.o)
    0x0000110c   0x0000110c   0x0000018a   Code   RO         3830    i.BsrCade           libCSpotterSDK_16k_24d_ISD9xxC_arm-cm0_V6.4.4_b20180328.lib(BsrJay.o)
    0x00001296   0x00001296   0x00000002   PAD
    0x00001298   0x00001298   0x00000104   Code   RO         3831    i.BsrCadea          libCSpotterSDK_16k_24d_ISD9xxC_arm-cm0_V6.4.4_b20180328.lib(BsrJay.o)
    0x0000139c   0x0000139c   0x00000044   Code   RO         3832    i.BsrCale           libCSpotterSDK_16k_24d_ISD9xxC_arm-cm0_V6.4.4_b20180328.lib(BsrJay.o)
    0x000013e0   0x000013e0   0x000003e8   Code   RO         3833    i.BsrCara           libCSpotterSDK_16k_24d_ISD9xxC_arm-cm0_V6.4.4_b20180328.lib(BsrJay.o)
    0x000017c8   0x000017c8   0x000000cc   Code   RO         3834    i.BsrCarae          libCSpotterSDK_16k_24d_ISD9xxC_arm-cm0_V6.4.4_b20180328.lib(BsrJay.o)
    0x00001894   0x00001894   0x000000bc   Code   RO         3835    i.BsrChad           libCSpotterSDK_16k_24d_ISD9xxC_arm-cm0_V6.4.4_b20180328.lib(BsrJay.o)
    0x00001950   0x00001950   0x00000048   Code   RO         3836    i.BsrChada          libCSpotterSDK_16k_24d_ISD9xxC_arm-cm0_V6.4.4_b20180328.lib(BsrJay.o)
    0x00001998   0x00001998   0x000000e0   Code   RO         3837    i.BsrChaz           libCSpotterSDK_16k_24d_ISD9xxC_arm-cm0_V6.4.4_b20180328.lib(BsrJay.o)
    0x00001a78   0x00001a78   0x000000bc   Code   RO         3838    i.BsrChaza          libCSpotterSDK_16k_24d_ISD9xxC_arm-cm0_V6.4.4_b20180328.lib(BsrJay.o)
    0x00001b34   0x00001b34   0x000000d0   Code   RO         3839    i.BsrChaze          libCSpotterSDK_16k_24d_ISD9xxC_arm-cm0_V6.4.4_b20180328.lib(BsrJay.o)
    0x00001c04   0x00001c04   0x000000ce   Code   RO         3840    i.BsrChazi          libCSpotterSDK_16k_24d_ISD9xxC_arm-cm0_V6.4.4_b20180328.lib(BsrJay.o)
    0x00001cd2   0x00001cd2   0x00000002   PAD
    0x00001cd4   0x00001cd4   0x00000568   Code   RO         3841    i.BsrClay           libCSpotterSDK_16k_24d_ISD9xxC_arm-cm0_V6.4.4_b20180328.lib(BsrJay.o)
    0x0000223c   0x0000223c   0x000001ec   Code   RO         3857    i.BsrCory           libCSpotterSDK_16k_24d_ISD9xxC_arm-cm0_V6.4.4_b20180328.lib(BsrJoy.o)
    0x00002428   0x00002428   0x00000022   Code   RO         3858    i.BsrCoty           libCSpotterSDK_16k_24d_ISD9xxC_arm-cm0_V6.4.4_b20180328.lib(BsrJoy.o)
    0x0000244a   0x0000244a   0x00000002   PAD
    0x0000244c   0x0000244c   0x00000058   Code   RO         3677    i.BsrDan            libCSpotterSDK_16k_24d_ISD9xxC_arm-cm0_V6.4.4_b20180328.lib(BsrJim.o)
    0x000024a4   0x000024a4   0x00000008   Code   RO         3862    i.BsrDane           libCSpotterSDK_16k_24d_ISD9xxC_arm-cm0_V6.4.4_b20180328.lib(BsrJoy.o)
    0x000024ac   0x000024ac   0x00000008   Code   RO         3864    i.BsrDawn           libCSpotterSDK_16k_24d_ISD9xxC_arm-cm0_V6.4.4_b20180328.lib(BsrJoy.o)
    0x000024b4   0x000024b4   0x0000006c   Code   RO         3865    i.BsrDeja           libCSpotterSDK_16k_24d_ISD9xxC_arm-cm0_V6.4.4_b20180328.lib(BsrJoy.o)
    0x00002520   0x00002520   0x00000180   Code   RO         3866    i.BsrDemi           libCSpotterSDK_16k_24d_ISD9xxC_arm-cm0_V6.4.4_b20180328.lib(BsrJoy.o)
    0x000026a0   0x000026a0   0x00000176   Code   RO         3867    i.BsrDeon           libCSpotterSDK_16k_24d_ISD9xxC_arm-cm0_V6.4.4_b20180328.lib(BsrJoy.o)
    0x00002816   0x00002816   0x0000024a   Code   RO         3868    i.BsrDina           libCSpotterSDK_16k_24d_ISD9xxC_arm-cm0_V6.4.4_b20180328.lib(BsrJoy.o)
    0x00002a60   0x00002a60   0x000000dc   Code   RO         3869    i.BsrDion           libCSpotterSDK_16k_24d_ISD9xxC_arm-cm0_V6.4.4_b20180328.lib(BsrJoy.o)
    0x00002b3c   0x00002b3c   0x00000164   Code   RO         3821    i.BsrEden           libCSpotterSDK_16k_24d_ISD9xxC_arm-cm0_V6.4.4_b20180328.lib(BsrEva.o)
    0x00002ca0   0x00002ca0   0x00000058   Code   RO         3680    i.BsrEli            libCSpotterSDK_16k_24d_ISD9xxC_arm-cm0_V6.4.4_b20180328.lib(BsrJim.o)
    0x00002cf8   0x00002cf8   0x000001b0   Code   RO         3822    i.BsrElla           libCSpotterSDK_16k_24d_ISD9xxC_arm-cm0_V6.4.4_b20180328.lib(BsrEva.o)
    0x00002ea8   0x00002ea8   0x00000178   Code   RO         3823    i.BsrElsa           libCSpotterSDK_16k_24d_ISD9xxC_arm-cm0_V6.4.4_b20180328.lib(BsrEva.o)
    0x00003020   0x00003020   0x000000d8   Code   RO         3808    i.BsrEmma           libCSpotterSDK_16k_24d_ISD9xxC_arm-cm0_V6.4.4_b20180328.lib(BsrEli.o)
    0x000030f8   0x000030f8   0x00000082   Code   RO         3809    i.BsrEric           libCSpotterSDK_16k_24d_ISD9xxC_arm-cm0_V6.4.4_b20180328.lib(BsrEli.o)
    0x0000317a   0x0000317a   0x00000002   PAD
    0x0000317c   0x0000317c   0x0000013c   Code   RO         3810    i.BsrErica          libCSpotterSDK_16k_24d_ISD9xxC_arm-cm0_V6.4.4_b20180328.lib(BsrEli.o)
    0x000032b8   0x000032b8   0x0000002e   Code   RO         3811    i.BsrErik           libCSpotterSDK_16k_24d_ISD9xxC_arm-cm0_V6.4.4_b20180328.lib(BsrEli.o)
    0x000032e6   0x000032e6   0x000000e6   Code   RO         3812    i.BsrErin           libCSpotterSDK_16k_24d_ISD9xxC_arm-cm0_V6.4.4_b20180328.lib(BsrEli.o)
    0x000033cc   0x000033cc   0x00000022   Code   RO         3681    i.BsrEva            libCSpotterSDK_16k_24d_ISD9xxC_arm-cm0_V6.4.4_b20180328.lib(BsrJim.o)
    0x000033ee   0x000033ee   0x0000003a   Code   RO         3813    i.BsrEvan           libCSpotterSDK_16k_24d_ISD9xxC_arm-cm0_V6.4.4_b20180328.lib(BsrEli.o)
    0x00003428   0x00003428   0x000000c0   Code   RO         3888    i.BsrGary           libCSpotterSDK_16k_24d_ISD9xxC_arm-cm0_V6.4.4_b20180328.lib(BsrAna.o)
    0x000034e8   0x000034e8   0x000001cc   Code   RO         3893    i.BsrGreg           libCSpotterSDK_16k_24d_ISD9xxC_arm-cm0_V6.4.4_b20180328.lib(BsrAnn.o)
    0x000036b4   0x000036b4   0x00000036   Code   RO         3683    i.BsrGuy            libCSpotterSDK_16k_24d_ISD9xxC_arm-cm0_V6.4.4_b20180328.lib(BsrJim.o)
    0x000036ea   0x000036ea   0x00000002   PAD
    0x000036ec   0x000036ec   0x000000b0   Code   RO         3902    i.BsrHugo           libCSpotterSDK_16k_24d_ISD9xxC_arm-cm0_V6.4.4_b20180328.lib(BsrGuy.o)
    0x0000379c   0x0000379c   0x00000036   Code   RO         3903    i.BsrIris           libCSpotterSDK_16k_24d_ISD9xxC_arm-cm0_V6.4.4_b20180328.lib(BsrGuy.o)
    0x000037d2   0x000037d2   0x00000002   PAD
    0x000037d4   0x000037d4   0x00000054   Code   RO         3904    i.BsrIrma           libCSpotterSDK_16k_24d_ISD9xxC_arm-cm0_V6.4.4_b20180328.lib(BsrGuy.o)
    0x00003828   0x00003828   0x0000002e   Code   RO         3905    i.BsrIsai           libCSpotterSDK_16k_24d_ISD9xxC_arm-cm0_V6.4.4_b20180328.lib(BsrGuy.o)
    0x00003856   0x00003856   0x000000bc   Code   RO         3685    i.BsrIvy            libCSpotterSDK_16k_24d_ISD9xxC_arm-cm0_V6.4.4_b20180328.lib(BsrJim.o)
    0x00003912   0x00003912   0x000000e2   Code   RO         3871    i.BsrJamii          libCSpotterSDK_16k_24d_ISD9xxC_arm-cm0_V6.4.4_b20180328.lib(BsrJoy.o)
    0x000039f4   0x000039f4   0x00000018   Code   RO         3686    i.BsrJan            libCSpotterSDK_16k_24d_ISD9xxC_arm-cm0_V6.4.4_b20180328.lib(BsrJim.o)
    0x00003a0c   0x00003a0c   0x0000018c   Code   RO         3842    i.BsrJeni           libCSpotterSDK_16k_24d_ISD9xxC_arm-cm0_V6.4.4_b20180328.lib(BsrJay.o)
    0x00003b98   0x00003b98   0x0000016e   Code   RO         3776    i.BsrJoan           libCSpotterSDK_16k_24d_ISD9xxC_arm-cm0_V6.4.4_b20180328.lib(BsrKai.o)
    0x00003d06   0x00003d06   0x0000002a   Code   RO         3490    i.BsrJohn           libCSpotterSDK_16k_24d_ISD9xxC_arm-cm0_V6.4.4_b20180328.lib(BsrAli.o)
    0x00003d30   0x00003d30   0x00000036   Code   RO         3491    i.BsrJose           libCSpotterSDK_16k_24d_ISD9xxC_arm-cm0_V6.4.4_b20180328.lib(BsrAli.o)
    0x00003d66   0x00003d66   0x000000a4   Code   RO         3492    i.BsrJosh           libCSpotterSDK_16k_24d_ISD9xxC_arm-cm0_V6.4.4_b20180328.lib(BsrAli.o)
    0x00003e0a   0x00003e0a   0x00000002   PAD
    0x00003e0c   0x00003e0c   0x000000e0   Code   RO         3697    i.BsrJoyci          libCSpotterSDK_16k_24d_ISD9xxC_arm-cm0_V6.4.4_b20180328.lib(BsrJim.o)
    0x00003eec   0x00003eec   0x00000034   Code   RO         3824    i.BsrJuanitez       libCSpotterSDK_16k_24d_ISD9xxC_arm-cm0_V6.4.4_b20180328.lib(BsrEva.o)
    0x00003f20   0x00003f20   0x00000018   Code   RO         3702    i.BsrLei            libCSpotterSDK_16k_24d_ISD9xxC_arm-cm0_V6.4.4_b20180328.lib(BsrJim.o)
    0x00003f38   0x00003f38   0x0000007a   Code   RO         3707    i.BsrMaxi           libCSpotterSDK_16k_24d_ISD9xxC_arm-cm0_V6.4.4_b20180328.lib(BsrJim.o)
    0x00003fb2   0x00003fb2   0x00000576   Code   RO         3708    i.BsrMichael        libCSpotterSDK_16k_24d_ISD9xxC_arm-cm0_V6.4.4_b20180328.lib(BsrJim.o)
    0x00004528   0x00004528   0x00000008   Code   RO         3709    i.BsrMichelle       libCSpotterSDK_16k_24d_ISD9xxC_arm-cm0_V6.4.4_b20180328.lib(BsrJim.o)
    0x00004530   0x00004530   0x000000ac   Code   RO         3711    i.BsrMike           libCSpotterSDK_16k_24d_ISD9xxC_arm-cm0_V6.4.4_b20180328.lib(BsrJim.o)
    0x000045dc   0x000045dc   0x00000088   Code   RO         3778    i.BsrMya            libCSpotterSDK_16k_24d_ISD9xxC_arm-cm0_V6.4.4_b20180328.lib(BsrKai.o)
    0x00004664   0x00004664   0x00000032   Code   RO         3779    i.BsrNia            libCSpotterSDK_16k_24d_ISD9xxC_arm-cm0_V6.4.4_b20180328.lib(BsrKai.o)
    0x00004696   0x00004696   0x00000136   Code   RO         3782    i.BsrRay            libCSpotterSDK_16k_24d_ISD9xxC_arm-cm0_V6.4.4_b20180328.lib(BsrKai.o)
    0x000047cc   0x000047cc   0x00000012   Code   RO         3783    i.BsrRex            libCSpotterSDK_16k_24d_ISD9xxC_arm-cm0_V6.4.4_b20180328.lib(BsrKai.o)
    0x000047de   0x000047de   0x00000010   Code   RO         3784    i.BsrRey            libCSpotterSDK_16k_24d_ISD9xxC_arm-cm0_V6.4.4_b20180328.lib(BsrKai.o)
    0x000047ee   0x000047ee   0x000004a2   Code   RO         3785    i.BsrRon            libCSpotterSDK_16k_24d_ISD9xxC_arm-cm0_V6.4.4_b20180328.lib(BsrKai.o)
    0x00004c90   0x00004c90   0x0000002c   Code   RO         3786    i.BsrRoy            libCSpotterSDK_16k_24d_ISD9xxC_arm-cm0_V6.4.4_b20180328.lib(BsrKai.o)
    0x00004cbc   0x00004cbc   0x00000010   Code   RO         3787    i.BsrTed            libCSpotterSDK_16k_24d_ISD9xxC_arm-cm0_V6.4.4_b20180328.lib(BsrKai.o)
    0x00004ccc   0x00004ccc   0x00000068   Code   RO         3788    i.BsrTia            libCSpotterSDK_16k_24d_ISD9xxC_arm-cm0_V6.4.4_b20180328.lib(BsrKai.o)
    0x00004d34   0x00004d34   0x00000092   Code   RO         3789    i.BsrTom            libCSpotterSDK_16k_24d_ISD9xxC_arm-cm0_V6.4.4_b20180328.lib(BsrKai.o)
    0x00004dc6   0x00004dc6   0x0000005e   Code   RO         3790    i.BsrTop            libCSpotterSDK_16k_24d_ISD9xxC_arm-cm0_V6.4.4_b20180328.lib(BsrKai.o)
    0x00004e24   0x00004e24   0x00000012   Code   RO         3791    i.BsrTre            libCSpotterSDK_16k_24d_ISD9xxC_arm-cm0_V6.4.4_b20180328.lib(BsrKai.o)
    0x00004e36   0x00004e36   0x00000004   Code   RO         3767    i.BsrZoe            libCSpotterSDK_16k_24d_ISD9xxC_arm-cm0_V6.4.4_b20180328.lib(BsrJoe.o)
    0x00004e3a   0x00004e3a   0x0000001e   Code   RO         1087    i.BufCtrl_UpdateReadWithCount  bufctrl.o
    0x00004e58   0x00004e58   0x0000001e   Code   RO         1088    i.BufCtrl_UpdateWriteWithCount  bufctrl.o
    0x00004e76   0x00004e76   0x00000002   PAD
    0x00004e78   0x00004e78   0x00000010   Code   RO          513    i.CAPS_IRQHandler   interrupthandler.o
    0x00004e88   0x00004e88   0x00000034   Code   RO         2153    i.CLK_EnableLDO     clk.o
    0x00004ebc   0x00004ebc   0x0000001c   Code   RO         2154    i.CLK_EnableModuleClock  clk.o
    0x00004ed8   0x00004ed8   0x0000001c   Code   RO         2155    i.CLK_EnableXtalRC  clk.o
    0x00004ef4   0x00004ef4   0x00000010   Code   RO         2156    i.CLK_GetHCLKFreq   clk.o
    0x00004f04   0x00004f04   0x0000003c   Code   RO         2159    i.CLK_SetHCLK       clk.o
    0x00004f40   0x00004f40   0x00000050   Code   RO         2160    i.CLK_SetModuleClock  clk.o
    0x00004f90   0x00004f90   0x00000064   Code   RO         3404    i.CSpotter_AddSample  libCSpotterSDK_16k_24d_ISD9xxC_arm-cm0_V6.4.4_b20180328.lib(CSpotterSDKApi.o)
    0x00004ff4   0x00004ff4   0x000000bc   Code   RO         3408    i.CSpotter_GetMemoryUsage_MultiWithSpeakerAndExtRejModel  libCSpotterSDK_16k_24d_ISD9xxC_arm-cm0_V6.4.4_b20180328.lib(CSpotterSDKApi.o)
    0x000050b0   0x000050b0   0x00000018   Code   RO         3409    i.CSpotter_GetMemoryUsage_Sep  libCSpotterSDK_16k_24d_ISD9xxC_arm-cm0_V6.4.4_b20180328.lib(CSpotterSDKApi.o)
    0x000050c8   0x000050c8   0x00000024   Code   RO         3415    i.CSpotter_GetResult  libCSpotterSDK_16k_24d_ISD9xxC_arm-cm0_V6.4.4_b20180328.lib(CSpotterSDKApi.o)
    0x000050ec   0x000050ec   0x00000204   Code   RO         3423    i.CSpotter_Init_MultiWithExtRejModel  libCSpotterSDK_16k_24d_ISD9xxC_arm-cm0_V6.4.4_b20180328.lib(CSpotterSDKApi.o)
    0x000052f0   0x000052f0   0x00000024   Code   RO         3424    i.CSpotter_Init_Sep  libCSpotterSDK_16k_24d_ISD9xxC_arm-cm0_V6.4.4_b20180328.lib(CSpotterSDKApi.o)
    0x00005314   0x00005314   0x00000034   Code   RO         3429    i.CSpotter_Reset    libCSpotterSDK_16k_24d_ISD9xxC_arm-cm0_V6.4.4_b20180328.lib(CSpotterSDKApi.o)
    0x00005348   0x00005348   0x00000002   Code   RO         2304    i.DPWM_Open         dpwm.o
    0x0000534a   0x0000534a   0x00000002   PAD
    0x0000534c   0x0000534c   0x0000001c   Code   RO          514    i.GPAB_IRQHandler   interrupthandler.o
    0x00005368   0x00005368   0x00000028   Code   RO         2458    i.GPIO_SetMode      gpio.o
    0x00005390   0x00005390   0x00000088   Code   RO          775    i.MD4App_DecodeProcess  md4app.o
    0x00005418   0x00005418   0x00000020   Code   RO         3387    i.MD4_CheckResLdr   MD4_Keil.lib(md4decode.o)
    0x00005438   0x00005438   0x000000c8   Code   RO         3388    i.MD4_DecodeFrame   MD4_Keil.lib(md4decode.o)
    0x00005500   0x00005500   0x00000016   Code   RO         3390    i.MD4_DecodeIsEnd   MD4_Keil.lib(md4decode.o)
    0x00005516   0x00005516   0x00000100   Code   RO         3391    i.MD4_DecodeProcess  MD4_Keil.lib(md4decode.o)
    0x00005616   0x00005616   0x00000002   PAD
    0x00005618   0x00005618   0x00000080   Code   RO         1138    i.MIC_ChangeSR      micspk.o
    0x00005698   0x00005698   0x000000b4   Code   RO         1140    i.MIC_Open          micspk.o
    0x0000574c   0x0000574c   0x0000000c   Code   RO         1141    i.MIC_Start         micspk.o
    0x00005758   0x00005758   0x00000016   Code   RO          718    i.MicGetApp_Initiate  micgetapp.o
    0x0000576e   0x0000576e   0x00000028   Code   RO          719    i.MicGetApp_ProcessRec  micgetapp.o
    0x00005796   0x00005796   0x00000028   Code   RO          720    i.MicGetApp_StartRec  micgetapp.o
    0x000057be   0x000057be   0x00000066   Code   RO         3498    i.NINJA_API_1       libCSpotterSDK_16k_24d_ISD9xxC_arm-cm0_V6.4.4_b20180328.lib(BsrGo.o)
    0x00005824   0x00005824   0x00000280   Code   RO         3500    i.NINJA_API_11      libCSpotterSDK_16k_24d_ISD9xxC_arm-cm0_V6.4.4_b20180328.lib(BsrGo.o)
    0x00005aa4   0x00005aa4   0x00000170   Code   RO         3502    i.NINJA_API_13      libCSpotterSDK_16k_24d_ISD9xxC_arm-cm0_V6.4.4_b20180328.lib(BsrGo.o)
    0x00005c14   0x00005c14   0x0000001e   Code   RO         3504    i.NINJA_API_15      libCSpotterSDK_16k_24d_ISD9xxC_arm-cm0_V6.4.4_b20180328.lib(BsrGo.o)
    0x00005c32   0x00005c32   0x0000001e   Code   RO         3508    i.NINJA_API_19      libCSpotterSDK_16k_24d_ISD9xxC_arm-cm0_V6.4.4_b20180328.lib(BsrGo.o)
    0x00005c50   0x00005c50   0x00000028   Code   RO         3509    i.NINJA_API_2       libCSpotterSDK_16k_24d_ISD9xxC_arm-cm0_V6.4.4_b20180328.lib(BsrGo.o)
    0x00005c78   0x00005c78   0x00000026   Code   RO         3512    i.NINJA_API_23      libCSpotterSDK_16k_24d_ISD9xxC_arm-cm0_V6.4.4_b20180328.lib(BsrGo.o)
    0x00005c9e   0x00005c9e   0x00000030   Code   RO         3515    i.NINJA_API_26      libCSpotterSDK_16k_24d_ISD9xxC_arm-cm0_V6.4.4_b20180328.lib(BsrGo.o)
    0x00005cce   0x00005cce   0x00000024   Code   RO         3519    i.NINJA_API_3       libCSpotterSDK_16k_24d_ISD9xxC_arm-cm0_V6.4.4_b20180328.lib(BsrGo.o)
    0x00005cf2   0x00005cf2   0x00000070   Code   RO         3536    i.NINJA_API_47      libCSpotterSDK_16k_24d_ISD9xxC_arm-cm0_V6.4.4_b20180328.lib(BsrGo.o)
    0x00005d62   0x00005d62   0x0000007e   Code   RO         3537    i.NINJA_API_48      libCSpotterSDK_16k_24d_ISD9xxC_arm-cm0_V6.4.4_b20180328.lib(BsrGo.o)
    0x00005de0   0x00005de0   0x0000003c   Code   RO         3542    i.NINJA_API_55      libCSpotterSDK_16k_24d_ISD9xxC_arm-cm0_V6.4.4_b20180328.lib(BsrGo.o)
    0x00005e1c   0x00005e1c   0x0000002a   Code   RO         3543    i.NINJA_API_56      libCSpotterSDK_16k_24d_ISD9xxC_arm-cm0_V6.4.4_b20180328.lib(BsrGo.o)
    0x00005e46   0x00005e46   0x00000002   PAD
    0x00005e48   0x00005e48   0x000003e0   Code   RO         3558    i.NINJA_API_73      libCSpotterSDK_16k_24d_ISD9xxC_arm-cm0_V6.4.4_b20180328.lib(BsrGo.o)
    0x00006228   0x00006228   0x000000b4   Code   RO         3560    i.NINJA_API_75      libCSpotterSDK_16k_24d_ISD9xxC_arm-cm0_V6.4.4_b20180328.lib(BsrGo.o)
    0x000062dc   0x000062dc   0x00000014   Code   RO            3    i.NVIC_EnableIRQ    main.o
    0x000062f0   0x000062f0   0x00000030   Code   RO         1022    i.OutputPin_Initiate  configio.o
    0x00006320   0x00006320   0x00000014   Code   RO         2657    i.PDMA_DisableInt   pdma.o
    0x00006334   0x00006334   0x00000014   Code   RO         2658    i.PDMA_EnableInt    pdma.o
    0x00006348   0x00006348   0x00000038   Code   RO          515    i.PDMA_IRQHandler   interrupthandler.o
    0x00006380   0x00006380   0x00000010   Code   RO         2659    i.PDMA_Open         pdma.o
    0x00006390   0x00006390   0x00000020   Code   RO         2660    i.PDMA_SetTransferAddr  pdma.o
    0x000063b0   0x000063b0   0x00000038   Code   RO         2661    i.PDMA_SetTransferCnt  pdma.o
    0x000063e8   0x000063e8   0x00000018   Code   RO         2662    i.PDMA_SetTransferDirection  pdma.o
    0x00006400   0x00006400   0x00000098   Code   RO         2663    i.PDMA_SetTransferMode  pdma.o
    0x00006498   0x00006498   0x00000018   Code   RO         2664    i.PDMA_Trigger      pdma.o
    0x000064b0   0x000064b0   0x0000004c   Code   RO            4    i.PWM0_IRQHandler   main.o
    0x000064fc   0x000064fc   0x00000008   Code   RO         2725    i.PWM_ClearIntFlag  pwm.o
    0x00006504   0x00006504   0x00000128   Code   RO         2727    i.PWM_ConfigOutputChannel  pwm.o
    0x0000662c   0x0000662c   0x0000000e   Code   RO         2730    i.PWM_DisableDeadZone  pwm.o
    0x0000663a   0x0000663a   0x00000008   Code   RO         2737    i.PWM_EnableOutput  pwm.o
    0x00006642   0x00006642   0x0000000e   Code   RO         2740    i.PWM_GetIntFlag    pwm.o
    0x00006650   0x00006650   0x00000026   Code   RO         2741    i.PWM_Start         pwm.o
    0x00006676   0x00006676   0x00000002   PAD
    0x00006678   0x00006678   0x00000024   Code   RO         1232    i.PdmaCtrl_Init     pdmactrl.o
    0x0000669c   0x0000669c   0x0000008c   Code   RO         1233    i.PdmaCtrl_Open     pdmactrl.o
    0x00006728   0x00006728   0x00000040   Code   RO         1234    i.PdmaCtrl_Start    pdmactrl.o
    0x00006768   0x00006768   0x00000014   Code   RO         1235    i.PdmaCtrl_Stop     pdmactrl.o
    0x0000677c   0x0000677c   0x0000000a   Code   RO         1283    i.Playback_Initiate  playback.o
    0x00006786   0x00006786   0x00000002   PAD
    0x00006788   0x00006788   0x000000cc   Code   RO         1287    i.Playback_Process  playback.o
    0x00006854   0x00006854   0x00000020   Code   RO         1288    i.Playback_Remove   playback.o
    0x00006874   0x00006874   0x00000014   Code   RO         1289    i.Playback_ResetChannelVolume  playback.o
    0x00006888   0x00006888   0x0000004c   Code   RO         1294    i.Playback_StopPlay  playback.o
    0x000068d4   0x000068d4   0x00000002   Code   RO          516    i.RTC_IRQHandler    interrupthandler.o
    0x000068d6   0x000068d6   0x00000002   PAD
    0x000068d8   0x000068d8   0x00000018   Code   RO         1529    i.Record_Add        record.o
    0x000068f0   0x000068f0   0x00000044   Code   RO         1530    i.Record_Process    record.o
    0x00006934   0x00006934   0x00000022   Code   RO         1532    i.Record_SetInBufRecord  record.o
    0x00006956   0x00006956   0x00000002   PAD
    0x00006958   0x00006958   0x00000048   Code   RO         1533    i.Record_StartRec   record.o
    0x000069a0   0x000069a0   0x00000030   Code   RO         1583    i.SPIFlash_3ByteAddr_Cmd  spiflash.o
    0x000069d0   0x000069d0   0x0000001e   Code   RO         1596    i.SPIFlash_Read     spiflash.o
    0x000069ee   0x000069ee   0x000000d4   Code   RO         1597    i.SPIFlash_ReadData  spiflash.o
    0x00006ac2   0x00006ac2   0x00000002   PAD
    0x00006ac4   0x00006ac4   0x00000018   Code   RO          403    i.SPIFlash_ReadDataCallback  appcallback.o
    0x00006adc   0x00006adc   0x00000018   Code   RO         1599    i.SPIFlash_ReadEnd  spiflash.o
    0x00006af4   0x00006af4   0x0000004e   Code   RO         1600    i.SPIFlash_ReadStart  spiflash.o
    0x00006b42   0x00006b42   0x00000002   PAD
    0x00006b44   0x00006b44   0x00000048   Code   RO         1145    i.SPK_Open          micspk.o
    0x00006b8c   0x00006b8c   0x00000010   Code   RO         1149    i.SPK_Stop          micspk.o
    0x00006b9c   0x00006b9c   0x00000010   Code   RO         3024    i.SYS_Lock          sys.o
    0x00006bac   0x00006bac   0x0000001a   Code   RO         3029    i.SYS_ResetModule   sys.o
    0x00006bc6   0x00006bc6   0x00000002   PAD
    0x00006bc8   0x00006bc8   0x0000002c   Code   RO         3030    i.SYS_Unlock        sys.o
    0x00006bf4   0x00006bf4   0x00000028   Code   RO          287    i.SendCMD           appfunctions.o
    0x00006c1c   0x00006c1c   0x00000024   Code   RO          288    i.SendCMD1time      appfunctions.o
    0x00006c40   0x00006c40   0x00000078   Code   RO          289    i.SendCMDByteTimer  appfunctions.o
    0x00006cb8   0x00006cb8   0x0000006c   Code   RO          290    i.SendCMDNULL       appfunctions.o
    0x00006d24   0x00006d24   0x00000054   Code   RO          917    i.SysClk_InitiateRC  sysclk.o
    0x00006d78   0x00006d78   0x00000050   Code   RO          878    i.SystemCoreClockUpdate  system_isd9100.o
    0x00006dc8   0x00006dc8   0x00000058   Code   RO         3129    i.TIMER_GetModuleClock  timer.o
    0x00006e20   0x00006e20   0x0000005e   Code   RO         3131    i.TIMER_Open        timer.o
    0x00006e7e   0x00006e7e   0x00000002   PAD
    0x00006e80   0x00006e80   0x00000098   Code   RO            6    i.TMR0_IRQHandler   main.o
    0x00006f18   0x00006f18   0x00000064   Code   RO            7    i.TMR1_IRQHandler   main.o
    0x00006f7c   0x00006f7c   0x00000068   Code   RO            8    i.UART0_IRQHandler  main.o
    0x00006fe4   0x00006fe4   0x00000038   Code   RO         3172    i.UART_ClearIntFlag  uart.o
    0x0000701c   0x0000701c   0x00000074   Code   RO            9    i.UART_Init         main.o
    0x00007090   0x00007090   0x0000005c   Code   RO         3176    i.UART_Open         uart.o
    0x000070ec   0x000070ec   0x00000004   Code   RO          404    i.UserEvent_ProcessCallback  appcallback.o
    0x000070f0   0x000070f0   0x0000002a   Code   RO          846    i.VROneCmdApp_GetCMDID  vronecmdapp.o
    0x0000711a   0x0000711a   0x00000048   Code   RO          847    i.VROneCmdApp_Initiate  vronecmdapp.o
    0x00007162   0x00007162   0x00000038   Code   RO          848    i.VROneCmdApp_UnpackBin  vronecmdapp.o
    0x0000719a   0x0000719a   0x00000016   Code   RO         1452    i.VolumeCtrl_Reset  volumectrl.o
    0x000071b0   0x000071b0   0x00000024   Code   RO         1454    i.VolumeCtrl_VolumeFade  volumectrl.o
    0x000071d4   0x000071d4   0x00000002   Code   RO          517    i.WDT_IRQHandler    interrupthandler.o
    0x000071d6   0x000071d6   0x0000001a   Code   RO          377    i.__ARM_common_switch8  appfunctions.o
    0x000071f0   0x000071f0   0x00000024   Code   RO          292    i.delayms           appfunctions.o
    0x00007214   0x00007214   0x0000004c   Code   RO           10    i.main              main.o
    0x00007260   0x00007260   0x000000c8   Code   RO           11    i.pwm_init          main.o
    0x00007328   0x00007328   0x00000084   Code   RO           12    i.time_init         main.o
    0x000073ac   0x000073ac   0x0000001c   Code   RO           13    i.uart_rev_task     main.o
    0x000073c8   0x000073c8   0x00000010   Data   RO          405    .constdata          appcallback.o
    0x000073d8   0x000073d8   0x00000044   Data   RO         1150    .constdata          micspk.o
    0x0000741c   0x0000741c   0x0000001a   Data   RO         1455    .constdata          volumectrl.o
    0x00007436   0x00007436   0x00000002   PAD
    0x00007438   0x00007438   0x000000a8   Data   RO         2743    .constdata          pwm.o
    0x000074e0   0x000074e0   0x00000014   Data   RO         3132    .constdata          timer.o
    0x000074f4   0x000074f4   0x00000030   Data   RO         3394    .constdata          MD4_Keil.lib(md4decode.o)
    0x00007524   0x00007524   0x00000914   Data   RO         3563    .constdata          libCSpotterSDK_16k_24d_ISD9xxC_arm-cm0_V6.4.4_b20180328.lib(BsrGo.o)
    0x00007e38   0x00007e38   0x00000800   Data   RO         3632    .constdata          libCSpotterSDK_16k_24d_ISD9xxC_arm-cm0_V6.4.4_b20180328.lib(BsrBen.o)
    0x00008638   0x00008638   0x00000064   Data   RO         3814    .constdata          libCSpotterSDK_16k_24d_ISD9xxC_arm-cm0_V6.4.4_b20180328.lib(BsrEli.o)
    0x0000869c   0x0000869c   0x00000009   Data   RO         3872    .constdata          libCSpotterSDK_16k_24d_ISD9xxC_arm-cm0_V6.4.4_b20180328.lib(BsrJoy.o)
    0x000086a5   0x000086a5   0x00000001   PAD
    0x000086a6   0x000086a6   0x00000284   Data   RO         3890    .constdata          libCSpotterSDK_16k_24d_ISD9xxC_arm-cm0_V6.4.4_b20180328.lib(BsrAna.o)
    0x0000892a   0x0000892a   0x00000404   Data   RO         3897    .constdata          libCSpotterSDK_16k_24d_ISD9xxC_arm-cm0_V6.4.4_b20180328.lib(BsrAnn.o)
    0x00008d2e   0x00008d2e   0x00000002   PAD
    0x00008d30   0x00008d30   0x00000200   Data   RO         3906    .constdata          libCSpotterSDK_16k_24d_ISD9xxC_arm-cm0_V6.4.4_b20180328.lib(BsrGuy.o)
    0x00008f30   0x00008f30   0x00000020   Data   RO         4155    Region$$Table       anon$$obj.o


    Execution Region RW_IRAM1 (Exec base: 0x20000000, Load base: 0x00008f50, Size: 0x00002e80, Max: 0x00003000, ABSOLUTE)

    Exec Addr    Load Addr    Size         Type   Attr      Idx    E Section Name        Object

    0x20000000   0x00008f50   0x00000018   Data   RW           17    .data               main.o
    0x20000018   0x00008f68   0x00000001   Data   RW           22    .data               main.o
    0x20000019   0x00008f69   0x00000001   Data   RW           23    .data               main.o
    0x2000001a   0x00008f6a   0x00000005   Data   RW          299    .data               appfunctions.o
    0x2000001f   0x00008f6f   0x00000001   PAD
    0x20000020   0x00008f70   0x0000001c   Data   RW          880    .data               system_isd9100.o
    0x2000003c   0x00008f8c   0x0000000c   Data   RW         1296    .data               playback.o
    0x20000048   0x00008f98   0x00000008   Data   RW         1456    .data               volumectrl.o
    0x20000050   0x00008fa0   0x00000008   Data   RW         1535    .data               record.o
    0x20000058        -       0x000000a4   Zero   RW           15    .bss                main.o
    0x200000fc        -       0x00002700   Zero   RW           16    .bss                main.o
    0x200027fc        -       0x00000020   Zero   RW          518    .bss                interrupthandler.o
    0x2000281c        -       0x00000060   Zero   RW         4030    .bss                c_p.l(libspace.o)
    0x2000287c   0x00008fa8   0x00000004   PAD
    0x20002880        -       0x00000200   Zero   RW          909    HEAP                startup_isd9100.o
    0x20002a80        -       0x00000400   Zero   RW          908    STACK               startup_isd9100.o


==============================================================================

Image component sizes


      Code (inc. data)   RO Data    RW Data    ZI Data      Debug   Object Name

       150         28          0          0          0       2260   adc.o
        28          6         16          0          0     109480   appcallback.o
      1034        120          0          5          0      11124   appfunctions.o
        96         12          0          0          0       1579   biq.o
        60          0          0          0          0       3853   bufctrl.o
       264         32          0          0          0       3760   clk.o
        48         10          0          0          0        533   configio.o
         2          0          0          0          0        460   dpwm.o
        40          0          0          0          0       1039   gpio.o
       104         28          0          0         32     106129   interrupthandler.o
      1004        114          0         26      10148     126257   main.o
       136          4          0          0          0       9877   md4app.o
       102          0          0          0          0       5649   micgetapp.o
       456         80         68          0          0       4232   micspk.o
       344         54          0          0          0       5478   pdma.o
       260         24          0          0          0       2897   pdmactrl.o
       342         34          0         12          0       4382   playback.o
         0          0          0          0          0       5720   powerdown.o
       378         16        168          0          0       4627   pwm.o
       198         34          0          8          0       3344   record.o
       392          0          0          0          0       4478   spiflash.o
        96         46        192          0       1536        736   startup_isd9100.o
        86         10          0          0          0       1994   sys.o
        84          8          0          0          0        692   sysclk.o
        80         18          0         28          0       1605   system_isd9100.o
       182         18         20          0          0       2040   timer.o
       148         14          0          0          0       1776   uart.o
        58          4         26          8          0       6665   volumectrl.o
       170          0          0          0          0       2734   vronecmdapp.o

    ----------------------------------------------------------------------
      6364        714        524         88      11716     435400   Object Totals
         0          0         32          0          0          0   (incl. Generated)
        22          0          2          1          0          0   (incl. Padding)

    ----------------------------------------------------------------------

      Code (inc. data)   RO Data    RW Data    ZI Data      Debug   Library Member Name

       510         28         48          0          0        284   md4decode.o
         8          0          0          0          0         68   __main.o
         0          0          0          0          0          0   __rtentry.o
        12          0          0          0          0          0   __rtentry2.o
         6          0          0          0          0          0   __rtentry4.o
        60          8          0          0          0          0   __scatter.o
        26          0          0          0          0          0   __scatter_copy.o
        28          0          0          0          0          0   __scatter_zi.o
       488          0          0          0          0         92   aeabi_sdivfast.o
        16          0          0          0          0         68   exit.o
         6          0          0          0          0        136   heapauxi.o
         0          0          0          0          0          0   indicate_semi.o
         2          0          0          0          0          0   libinit.o
         2          0          0          0          0          0   libinit2.o
         2          0          0          0          0          0   libshutdown.o
         2          0          0          0          0          0   libshutdown2.o
         8          4          0          0         96         68   libspace.o
        64          0          0          0          0        108   rt_memclr.o
        56          0          0          0          0         68   rt_memcpy.o
         2          0          0          0          0          0   rtexit.o
        10          0          0          0          0          0   rtexit2.o
        12          4          0          0          0         60   sys_exit.o
        62          0          0          0          0         80   sys_stackheap_outer.o
         2          0          0          0          0         68   use_no_semi.o
       260          0          0          0          0        272   BsrAli.o
       192          4        644          0          0         80   BsrAna.o
       460         12       1028          0          0         88   BsrAnn.o
        60          6       2048          0          0         60   BsrBen.o
       658          0          0          0          0        588   BsrDon.o
       996         14        100          0          0        472   BsrEli.o
      1216         18          0          0          0        316   BsrEva.o
      2844         36       2324          0          0       1200   BsrGo.o
       360         10        512          0          0        300   BsrGuy.o
      5128         74          0          0          0       1176   BsrJay.o
      3228         22          0          0          0       1256   BsrJim.o
       374          0          0          0          0        296   BsrJoe.o
      2440         20          9          0          0        764   BsrJoy.o
      2504          0          0          0          0       1012   BsrKai.o
       952         74          0          0          0        532   CSpotterSDKApi.o

    ----------------------------------------------------------------------
     23084        334       6716          0        100       9512   Library Totals
        28          0          3          0          4          0   (incl. Padding)

    ----------------------------------------------------------------------

      Code (inc. data)   RO Data    RW Data    ZI Data      Debug   Library Name

       510         28         48          0          0        284   MD4_Keil.lib
       874         16          0          0         96        816   c_p.l
     21672        290       6665          0          0       8412   libCSpotterSDK_16k_24d_ISD9xxC_arm-cm0_V6.4.4_b20180328.lib

    ----------------------------------------------------------------------
     23084        334       6716          0        100       9512   Library Totals

    ----------------------------------------------------------------------

==============================================================================


      Code (inc. data)   RO Data    RW Data    ZI Data      Debug   

     29448       1048       7240         88      11816     435564   Grand Totals
     29448       1048       7240         88      11816     435564   ELF Image Totals
     29448       1048       7240         88          0          0   ROM Totals

==============================================================================

    Total RO  Size (Code + RO Data)                36688 (  35.83kB)
    Total RW  Size (RW Data + ZI Data)             11904 (  11.63kB)
    Total ROM Size (Code + RO Data + RW Data)      36776 (  35.91kB)

==============================================================================

